Certificate:
    Data:
        Version: 3 (0x2)
        Serial Number: 4 (0x4)
    Signature Algorithm: sha256WithRSAEncryption
        Issuer: C=IN, ST=Delhi, L=Delhi, O=IIITD, OU=NS, CN=Gursimran/emailAddress=gursimran14041@iiitd.ac.in
        Validity
            Not Before: Nov 21 18:16:59 2016 GMT
            Not After : Aug 18 18:16:59 2019 GMT
        Subject: C=IN, ST=Delhi, L=Delhi, O=IIITD, OU=NS, CN=Dave
        Subject Public Key Info:
            Public Key Algorithm: rsaEncryption
                Public-Key: (4096 bit)
                Modulus:
                    00:a0:46:21:01:eb:3c:a2:ae:25:34:4f:95:33:df:
                    bc:a7:14:ee:4b:91:ca:f6:f7:0d:0e:0b:c8:c5:57:
                    46:cc:8f:a2:34:75:84:9e:8c:c8:54:07:13:22:7b:
                    f0:e3:21:a2:30:c0:7b:fa:40:60:7d:0b:68:e9:84:
                    d1:f0:88:82:59:8a:77:93:ce:b4:c7:69:c0:3f:a1:
                    62:cd:5a:0e:a8:42:a0:57:8e:42:56:84:7a:15:cf:
                    df:ef:61:c9:24:38:6b:97:a3:50:f6:a4:06:df:88:
                    7e:f9:f9:a6:bb:7a:d8:93:84:da:8e:7a:41:96:e7:
                    0d:6a:8d:96:3e:cd:c8:c2:1b:f2:70:6e:cb:dd:9c:
                    0c:78:e9:ce:5e:c8:a0:18:09:5f:3d:82:8e:9d:d2:
                    04:55:20:81:9e:8f:23:3f:78:f3:2a:ed:7a:4a:88:
                    f3:1b:8e:8c:df:e5:98:96:5a:fb:fd:d1:f3:02:eb:
                    a1:f9:42:cc:99:e5:ad:8e:de:44:26:23:42:98:44:
                    2e:a1:96:49:a1:2b:f0:39:56:e7:85:39:f4:23:c4:
                    b1:5d:ee:98:a9:1c:f5:8d:a9:22:10:84:af:c0:12:
                    cc:14:d7:06:6f:71:87:38:c0:de:62:e0:9a:d8:41:
                    f5:2e:e5:ec:5c:f6:3f:b3:4c:8f:dc:46:ea:2d:6a:
                    2d:dd:1f:07:52:14:fb:ac:38:85:3b:3b:1e:0c:92:
                    d2:5e:45:ca:75:ef:c7:58:4d:bb:a0:e5:85:6c:82:
                    a6:ba:e8:f9:be:d5:4e:22:c5:ee:4e:3a:88:e9:9f:
                    bd:9d:fc:86:7a:8a:89:ea:35:4e:6c:48:4d:51:29:
                    ce:3b:20:d2:6d:82:35:9d:7d:df:20:b2:55:c7:ae:
                    7e:88:0a:27:fa:14:b3:e3:c0:92:4f:60:29:a3:18:
                    c2:c8:00:dd:bf:9f:73:76:8b:de:57:88:44:8b:d0:
                    f7:2b:d6:c0:e2:42:7a:17:94:58:ba:3e:21:dc:f6:
                    9f:e1:fa:19:da:dc:9b:e8:47:ed:61:9c:c0:c5:cc:
                    42:19:1a:e7:e3:75:91:42:6d:d6:44:9c:21:4e:87:
                    32:ee:61:96:e8:a9:d9:35:18:a4:48:cf:0f:f2:94:
                    d6:a9:d7:98:e3:4e:56:b5:9c:58:cc:4e:7b:ea:ff:
                    c9:a0:3f:dd:22:7d:e9:e6:ef:94:fb:b3:71:f3:3e:
                    ae:23:c0:80:f9:3b:3f:db:24:08:d6:bf:f0:ad:f8:
                    7e:56:66:c4:b7:6f:bb:42:34:39:2f:ae:12:01:a3:
                    cc:09:33:62:79:27:63:18:5a:af:56:d3:e4:32:d3:
                    5a:ce:7a:ce:59:61:eb:da:23:94:53:6c:ad:05:3c:
                    47:00:d7
                Exponent: 65537 (0x10001)
        X509v3 extensions:
            X509v3 Subject Key Identifier: 
                B6:85:13:E7:7E:E2:6E:EB:9F:9B:C9:17:F7:BE:BF:8B:68:EB:56:17
            X509v3 Authority Key Identifier: 
                keyid:5A:48:4D:08:A7:36:08:AE:20:C5:CE:A1:8E:50:E2:1D:95:26:91:64

            X509v3 Basic Constraints: 
                CA:FALSE
            X509v3 Key Usage: 
                Digital Signature, Key Encipherment
    Signature Algorithm: sha256WithRSAEncryption
         ab:4b:ea:02:72:4d:59:aa:e6:33:a3:de:82:49:b9:55:d7:7f:
         1d:0a:ec:c3:6f:e6:76:f6:03:e2:de:4f:a7:2e:a8:c7:88:b4:
         3f:07:26:57:be:be:38:df:3c:03:ae:c7:37:b7:b2:8f:a6:c8:
         ac:2c:5c:21:38:f0:36:fa:53:04:b1:58:76:e2:91:47:ef:e5:
         de:45:65:b8:08:88:2d:35:01:6a:5e:cf:18:dc:ae:4c:ac:9f:
         44:87:ed:f3:2e:bb:2c:19:91:df:30:e3:e4:90:67:5b:d4:c9:
         c0:3e:d0:46:e4:35:c6:c4:33:eb:a7:1b:40:84:33:3a:a5:ff:
         cb:89:8b:d1:c6:e7:c1:8d:07:0d:28:a5:fc:95:6b:3e:ec:83:
         e4:26:8e:7f:77:85:26:46:44:ee:d7:fd:12:58:1c:f4:c8:88:
         96:10:5d:1e:6b:28:c2:ee:a1:f8:d1:0f:91:21:1c:3d:a7:37:
         79:0b:7b:83:e0:14:13:4c:73:7c:9c:b1:b8:27:17:ba:4a:09:
         27:cb:40:aa:1c:c8:08:7b:7d:fe:26:24:4d:05:61:7e:ac:9d:
         44:04:5b:2e:eb:af:3e:27:86:b2:a1:ff:58:10:eb:e0:0e:01:
         55:71:ca:53:ae:51:96:1b:a9:9f:1e:71:e0:74:ef:e3:a0:2e:
         04:5e:cb:75:62:76:cc:9c:28:5a:2f:d9:d0:91:21:9b:dc:7c:
         7f:e4:19:95:5e:bb:d8:22:00:43:d9:ff:e8:63:7e:0e:6f:19:
         55:b5:db:42:95:88:8f:0f:3e:c7:2c:42:e5:d8:3f:80:ff:7d:
         91:71:88:f5:5f:4a:d9:02:fe:af:9e:f9:fc:c3:81:dd:8e:85:
         1b:2d:8e:ae:ab:88:97:81:fa:93:6a:28:e7:7c:dd:46:05:69:
         61:97:08:62:5f:e7:c8:28:28:52:ce:85:be:c2:71:b0:40:4e:
         9a:4f:6a:01:71:c9:1d:8a:40:12:a6:76:41:de:8f:41:fc:5d:
         ca:26:37:3f:33:ab:f9:17:df:7b:c0:f3:94:8f:39:cb:26:91:
         d1:73:22:6f:ad:73:73:08:6f:0a:ed:0f:03:64:0d:26:b2:e1:
         22:bf:d8:19:91:70:25:df:4f:a6:ad:59:1c:7e:a6:fe:e7:c2:
         5e:f3:b8:00:98:fe:97:12:e1:8c:b9:0d:b7:f8:b1:6b:f0:d8:
         2e:65:ac:7d:62:f6:20:6c:03:4d:64:be:0c:95:ff:54:2a:3b:
         2f:60:75:40:c8:fd:e2:7f:25:59:95:81:32:69:47:55:e7:e9:
         1f:d9:36:8e:26:b3:63:6d:95:3d:67:a3:cd:17:ea:99:a7:42:
         a6:4f:8a:a9:fc:fb:37:f2
-----BEGIN CERTIFICATE-----
MIIFuDCCA6CgAwIBAgIBBDANBgkqhkiG9w0BAQsFADCBiTELMAkGA1UEBhMCSU4x
DjAMBgNVBAgMBURlbGhpMQ4wDAYDVQQHDAVEZWxoaTEOMAwGA1UECgwFSUlJVEQx
CzAJBgNVBAsMAk5TMRIwEAYDVQQDDAlHdXJzaW1yYW4xKTAnBgkqhkiG9w0BCQEW
Gmd1cnNpbXJhbjE0MDQxQGlpaXRkLmFjLmluMB4XDTE2MTEyMTE4MTY1OVoXDTE5
MDgxODE4MTY1OVowWTELMAkGA1UEBhMCSU4xDjAMBgNVBAgMBURlbGhpMQ4wDAYD
VQQHDAVEZWxoaTEOMAwGA1UECgwFSUlJVEQxCzAJBgNVBAsMAk5TMQ0wCwYDVQQD
DAREYXZlMIICIjANBgkqhkiG9w0BAQEFAAOCAg8AMIICCgKCAgEAoEYhAes8oq4l
NE+VM9+8pxTuS5HK9vcNDgvIxVdGzI+iNHWEnozIVAcTInvw4yGiMMB7+kBgfQto
6YTR8IiCWYp3k860x2nAP6FizVoOqEKgV45CVoR6Fc/f72HJJDhrl6NQ9qQG34h+
+fmmu3rYk4TajnpBlucNao2WPs3IwhvycG7L3ZwMeOnOXsigGAlfPYKOndIEVSCB
no8jP3jzKu16SojzG46M3+WYllr7/dHzAuuh+ULMmeWtjt5EJiNCmEQuoZZJoSvw
OVbnhTn0I8SxXe6YqRz1jakiEISvwBLMFNcGb3GHOMDeYuCa2EH1LuXsXPY/s0yP
3EbqLWot3R8HUhT7rDiFOzseDJLSXkXKde/HWE27oOWFbIKmuuj5vtVOIsXuTjqI
6Z+9nfyGeoqJ6jVObEhNUSnOOyDSbYI1nX3fILJVx65+iAon+hSz48CST2ApoxjC
yADdv59zdoveV4hEi9D3K9bA4kJ6F5RYuj4h3Paf4foZ2tyb6EftYZzAxcxCGRrn
43WRQm3WRJwhTocy7mGW6KnZNRikSM8P8pTWqdeY405WtZxYzE576v/JoD/dIn3p
5u+U+7Nx8z6uI8CA+Ts/2yQI1r/wrfh+VmbEt2+7QjQ5L64SAaPMCTNieSdjGFqv
VtPkMtNaznrOWWHr2iOUU2ytBTxHANcCAwEAAaNaMFgwHQYDVR0OBBYEFLaFE+d+
4m7rn5vJF/e+v4to61YXMB8GA1UdIwQYMBaAFFpITQinNgiuIMXOoY5Q4h2VJpFk
MAkGA1UdEwQCMAAwCwYDVR0PBAQDAgWgMA0GCSqGSIb3DQEBCwUAA4ICAQCrS+oC
ck1ZquYzo96CSblV138dCuzDb+Z29gPi3k+nLqjHiLQ/ByZXvr443zwDrsc3t7KP
psisLFwhOPA2+lMEsVh24pFH7+XeRWW4CIgtNQFqXs8Y3K5MrJ9Eh+3zLrssGZHf
MOPkkGdb1MnAPtBG5DXGxDPrpxtAhDM6pf/LiYvRxufBjQcNKKX8lWs+7IPkJo5/
d4UmRkTu1/0SWBz0yIiWEF0eayjC7qH40Q+RIRw9pzd5C3uD4BQTTHN8nLG4Jxe6
Sgkny0CqHMgIe33+JiRNBWF+rJ1EBFsu668+J4ayof9YEOvgDgFVccpTrlGWG6mf
HnHgdO/joC4EXst1YnbMnChaL9nQkSGb3Hx/5BmVXrvYIgBD2f/oY34ObxlVtdtC
lYiPDz7HLELl2D+A/32RcYj1X0rZAv6vnvn8w4HdjoUbLY6uq4iXgfqTaijnfN1G
BWlhlwhiX+fIKChSzoW+wnGwQE6aT2oBcckdikASpnZB3o9B/F3KJjc/M6v5F997
wPOUjznLJpHRcyJvrXNzCG8K7Q8DZA0msuEiv9gZkXAl30+mrVkcfqb+58Je87gA
mP6XEuGMuQ23+LFr8NguZax9YvYgbANNZL4Mlf9UKjsvYHVAyP3ifyVZlYEyaUdV
5+kf2TaOJrNjbZU9Z6PNF+qZp0KmT4qp/Ps38g==
-----END CERTIFICATE-----
