Certificate:
    Data:
        Version: 3 (0x2)
        Serial Number: 2 (0x2)
    Signature Algorithm: sha256WithRSAEncryption
        Issuer: C=IN, ST=Delhi, L=Delhi, O=IIITD, OU=NS, CN=Gursimran/emailAddress=gursimran14041@iiitd.ac.in
        Validity
            Not Before: Nov 21 18:15:36 2016 GMT
            Not After : Aug 18 18:15:36 2019 GMT
        Subject: C=IN, ST=Delhi, L=Delhi, O=IIITD, OU=NS, CN=Bob
        Subject Public Key Info:
            Public Key Algorithm: rsaEncryption
                Public-Key: (4096 bit)
                Modulus:
                    00:ae:3b:6f:9d:ec:21:2e:9a:83:ab:75:82:e8:22:
                    a7:19:d0:26:3f:12:0e:7e:b2:95:a1:df:b3:36:8a:
                    0a:5d:a6:21:da:59:7d:ab:cd:b7:a4:1c:04:6f:64:
                    8d:69:a4:b7:1b:46:f6:80:51:b0:1d:db:03:cb:73:
                    4a:83:59:ba:31:31:b8:a3:50:a4:26:29:f1:d0:c4:
                    4f:21:0f:ac:21:b7:eb:61:58:4d:b5:a1:21:f5:e7:
                    e1:56:6a:12:fa:ae:2b:1f:c1:4f:02:0e:69:bd:15:
                    70:9e:b4:27:91:94:a2:cf:79:a8:79:c9:98:0a:98:
                    16:9b:82:65:16:c7:46:91:eb:1f:be:6c:eb:f1:18:
                    06:c7:20:e6:f0:5e:c7:3f:13:e0:2f:1b:93:cb:28:
                    9f:af:0f:f2:cb:9c:0a:cf:13:b2:e4:b4:7b:b6:f3:
                    0e:89:f1:37:80:ab:d9:01:89:53:37:d8:6f:4d:58:
                    61:a3:1a:df:99:e8:84:99:2c:ac:07:9f:3b:80:0d:
                    a8:c9:b5:b3:f7:0f:b5:a5:b8:97:a0:17:c7:df:3b:
                    46:4e:88:a0:a9:04:bc:29:60:1f:f8:ac:59:23:a3:
                    ad:c9:6a:a9:01:4e:48:4b:d3:fe:ad:e0:77:b7:40:
                    0f:e1:bc:52:2f:3a:0f:a3:ee:d7:63:8e:21:6a:b8:
                    87:07:73:b1:6d:44:28:f1:69:f3:8c:75:ba:81:cb:
                    6f:dd:2e:c6:80:2e:2b:98:f7:b3:16:f8:10:c0:4e:
                    e6:78:e2:ff:94:8d:f8:73:fa:3a:6b:d3:da:09:23:
                    a9:92:84:ab:6c:37:52:5b:f7:7c:d3:4b:2b:ad:9a:
                    09:96:25:4b:c6:81:f8:f5:72:8c:3c:24:63:19:89:
                    5d:c8:ff:8d:45:bc:fb:67:66:44:0b:cb:1c:6f:12:
                    17:e6:c0:2c:95:f9:58:44:26:9e:00:30:89:97:1a:
                    d8:22:7f:c2:44:b6:88:d6:d5:33:c7:e2:d3:c6:6c:
                    79:3e:07:d1:da:bb:43:38:ab:94:11:2d:1f:c2:7e:
                    c6:dd:71:58:72:59:5a:82:f7:f6:1d:95:43:ed:8c:
                    1e:d0:2f:cd:ac:97:03:e6:f5:99:95:2a:a5:2f:17:
                    f1:b1:81:39:e5:80:91:8f:e7:9c:12:fc:a5:b7:fa:
                    6f:10:38:be:15:0c:20:35:6c:8f:23:f7:fc:08:13:
                    46:4b:36:6a:76:e2:35:c2:48:2b:82:23:93:de:c7:
                    85:2e:03:78:5d:87:1e:70:87:1a:89:1a:d9:9b:03:
                    c6:c3:cc:23:53:35:89:4f:16:90:e5:90:05:17:42:
                    19:f6:fd:92:da:b6:8f:85:77:fe:34:8f:19:20:59:
                    a9:3b:05
                Exponent: 65537 (0x10001)
        X509v3 extensions:
            X509v3 Subject Key Identifier: 
                DD:4B:10:8A:6A:FC:96:AA:87:F1:D6:E6:53:3A:43:AC:D9:0C:9F:CF
            X509v3 Authority Key Identifier: 
                keyid:5A:48:4D:08:A7:36:08:AE:20:C5:CE:A1:8E:50:E2:1D:95:26:91:64

            X509v3 Basic Constraints: 
                CA:FALSE
            X509v3 Key Usage: 
                Digital Signature, Key Encipherment
    Signature Algorithm: sha256WithRSAEncryption
         63:d6:1d:0a:d3:fd:47:aa:13:07:68:07:eb:a2:72:2c:43:df:
         3e:1d:1e:c3:73:19:53:82:1b:d7:99:f1:14:30:c0:f6:cc:9f:
         7d:1e:8a:67:cf:c0:45:44:f6:96:e0:92:fe:92:9a:e6:8c:43:
         c4:00:d9:5a:01:c6:ef:80:82:18:9b:36:17:45:d3:53:df:3a:
         24:7f:61:ce:68:ce:e5:e6:9d:86:3f:ba:82:1f:f5:9e:a0:d3:
         f7:db:91:38:6f:82:6d:bc:f3:e6:7e:28:66:94:f1:99:83:ba:
         66:41:9e:28:4e:4c:52:c0:fd:35:e0:61:91:f5:8e:fd:05:fe:
         cd:79:5a:17:3b:3a:93:6a:06:5e:f1:48:5e:f7:ee:6f:94:90:
         48:33:09:2d:a0:56:ba:61:95:55:1c:4e:c7:88:2d:41:ff:26:
         7f:22:dd:b0:df:42:53:5c:14:bf:57:79:ca:f3:34:46:62:a8:
         2e:b1:6d:d7:d4:d4:90:ff:36:01:fa:17:af:07:4c:37:a4:d4:
         73:a5:60:be:d9:11:a8:88:52:da:42:f1:ce:b8:4c:4f:53:c5:
         b3:3e:6c:5e:2e:6a:55:dd:d2:92:ae:b6:24:f4:d5:ca:e7:ee:
         e6:1f:30:85:52:c6:0d:f5:4f:e1:8b:2f:bf:8d:e4:a2:9b:ba:
         29:70:49:1b:46:5d:38:e0:1e:56:c8:9c:07:ae:93:8b:e8:e8:
         f3:6f:3d:fe:75:d8:39:3a:08:a8:f8:03:4a:99:b4:c6:d3:05:
         6b:ae:90:0e:7d:79:3c:50:be:82:76:02:e8:e5:21:b1:c5:22:
         70:f5:e4:51:29:53:94:ed:f5:89:29:6b:40:dd:89:0b:d4:69:
         6a:da:16:dc:03:f6:66:f4:67:11:d8:77:1b:5c:01:1e:cd:03:
         4f:ef:45:18:69:42:4b:31:10:e2:5b:29:07:3c:c9:da:36:61:
         02:9e:26:72:bb:63:d8:a7:4f:d1:27:cd:47:6a:77:3e:58:ab:
         09:ee:aa:1d:7c:f9:1c:ce:bf:5f:15:80:72:27:b9:70:fe:35:
         2b:89:55:a7:16:27:f5:6f:57:a1:93:74:77:d5:ff:29:d6:01:
         ed:48:0c:0d:27:f1:ac:32:0f:0f:78:a7:29:c3:01:e6:26:bb:
         68:df:bb:e9:89:a9:f8:eb:59:58:21:ef:5a:fd:ff:51:65:a5:
         30:f4:58:01:55:d2:39:d2:d9:5f:d6:67:88:d2:1c:c9:d7:ba:
         34:e7:0c:76:5b:1c:04:b2:29:2b:60:b1:e5:bc:5b:f2:ef:b5:
         7d:e9:a0:85:ba:e4:62:16:4d:72:59:6f:8d:95:95:ce:59:1a:
         b1:38:c0:1c:d6:47:f0:fd
-----BEGIN CERTIFICATE-----
MIIFtzCCA5+gAwIBAgIBAjANBgkqhkiG9w0BAQsFADCBiTELMAkGA1UEBhMCSU4x
DjAMBgNVBAgMBURlbGhpMQ4wDAYDVQQHDAVEZWxoaTEOMAwGA1UECgwFSUlJVEQx
CzAJBgNVBAsMAk5TMRIwEAYDVQQDDAlHdXJzaW1yYW4xKTAnBgkqhkiG9w0BCQEW
Gmd1cnNpbXJhbjE0MDQxQGlpaXRkLmFjLmluMB4XDTE2MTEyMTE4MTUzNloXDTE5
MDgxODE4MTUzNlowWDELMAkGA1UEBhMCSU4xDjAMBgNVBAgMBURlbGhpMQ4wDAYD
VQQHDAVEZWxoaTEOMAwGA1UECgwFSUlJVEQxCzAJBgNVBAsMAk5TMQwwCgYDVQQD
DANCb2IwggIiMA0GCSqGSIb3DQEBAQUAA4ICDwAwggIKAoICAQCuO2+d7CEumoOr
dYLoIqcZ0CY/Eg5+spWh37M2igpdpiHaWX2rzbekHARvZI1ppLcbRvaAUbAd2wPL
c0qDWboxMbijUKQmKfHQxE8hD6wht+thWE21oSH15+FWahL6risfwU8CDmm9FXCe
tCeRlKLPeah5yZgKmBabgmUWx0aR6x++bOvxGAbHIObwXsc/E+AvG5PLKJ+vD/LL
nArPE7LktHu28w6J8TeAq9kBiVM32G9NWGGjGt+Z6ISZLKwHnzuADajJtbP3D7Wl
uJegF8ffO0ZOiKCpBLwpYB/4rFkjo63JaqkBTkhL0/6t4He3QA/hvFIvOg+j7tdj
jiFquIcHc7FtRCjxafOMdbqBy2/dLsaALiuY97MW+BDATuZ44v+Ujfhz+jpr09oJ
I6mShKtsN1Jb93zTSyutmgmWJUvGgfj1cow8JGMZiV3I/41FvPtnZkQLyxxvEhfm
wCyV+VhEJp4AMImXGtgif8JEtojW1TPH4tPGbHk+B9Hau0M4q5QRLR/CfsbdcVhy
WVqC9/YdlUPtjB7QL82slwPm9ZmVKqUvF/GxgTnlgJGP55wS/KW3+m8QOL4VDCA1
bI8j9/wIE0ZLNmp24jXCSCuCI5Pex4UuA3hdhx5whxqJGtmbA8bDzCNTNYlPFpDl
kAUXQhn2/ZLato+Fd/40jxkgWak7BQIDAQABo1owWDAdBgNVHQ4EFgQU3UsQimr8
lqqH8dbmUzpDrNkMn88wHwYDVR0jBBgwFoAUWkhNCKc2CK4gxc6hjlDiHZUmkWQw
CQYDVR0TBAIwADALBgNVHQ8EBAMCBaAwDQYJKoZIhvcNAQELBQADggIBAGPWHQrT
/UeqEwdoB+uicixD3z4dHsNzGVOCG9eZ8RQwwPbMn30eimfPwEVE9pbgkv6SmuaM
Q8QA2VoBxu+AghibNhdF01PfOiR/Yc5ozuXmnYY/uoIf9Z6g0/fbkThvgm288+Z+
KGaU8ZmDumZBnihOTFLA/TXgYZH1jv0F/s15Whc7OpNqBl7xSF737m+UkEgzCS2g
VrphlVUcTseILUH/Jn8i3bDfQlNcFL9XecrzNEZiqC6xbdfU1JD/NgH6F68HTDek
1HOlYL7ZEaiIUtpC8c64TE9TxbM+bF4ualXd0pKutiT01crn7uYfMIVSxg31T+GL
L7+N5KKbuilwSRtGXTjgHlbInAeuk4vo6PNvPf512Dk6CKj4A0qZtMbTBWuukA59
eTxQvoJ2AujlIbHFInD15FEpU5Tt9Ykpa0DdiQvUaWraFtwD9mb0ZxHYdxtcAR7N
A0/vRRhpQksxEOJbKQc8ydo2YQKeJnK7Y9inT9EnzUdqdz5Yqwnuqh18+RzOv18V
gHInuXD+NSuJVacWJ/VvV6GTdHfV/ynWAe1IDA0n8awyDw94pynDAeYmu2jfu+mJ
qfjrWVgh71r9/1FlpTD0WAFV0jnS2V/WZ4jSHMnXujTnDHZbHASyKStgseW8W/Lv
tX3poIW65GIWTXJZb42Vlc5ZGrE4wBzWR/D9
-----END CERTIFICATE-----
