Certificate:
    Data:
        Version: 3 (0x2)
        Serial Number: 1 (0x1)
    Signature Algorithm: sha256WithRSAEncryption
        Issuer: C=IN, ST=Delhi, L=Delhi, O=IIITD, OU=NS, CN=Gursimran/emailAddress=gursimran14041@iiitd.ac.in
        Validity
            Not Before: Nov 21 17:55:43 2016 GMT
            Not After : Aug 18 17:55:43 2019 GMT
        Subject: C=IN, ST=Delhi, L=Delhi, O=IIITD, OU=NS, CN=Alice
        Subject Public Key Info:
            Public Key Algorithm: rsaEncryption
                Public-Key: (4096 bit)
                Modulus:
                    00:c4:69:99:ba:63:44:70:d2:46:14:2f:ae:8f:e6:
                    e6:6b:71:10:ef:e5:43:3b:0a:3a:e4:ab:ed:11:58:
                    bb:60:d5:ac:2c:51:b8:49:c3:4b:bb:5c:2a:0a:96:
                    66:27:37:9c:61:af:17:ce:c6:81:52:60:25:9a:f0:
                    7d:3c:14:58:6d:6f:63:46:1e:1c:45:97:4a:0f:84:
                    5e:76:73:8a:89:64:db:0b:73:2a:c8:35:0b:a8:78:
                    4d:67:aa:1e:bb:19:cc:ea:8b:d1:ef:c7:dd:14:6c:
                    3d:37:3a:ae:e5:fe:3a:e9:90:2c:6a:5e:8a:ae:26:
                    3b:6d:06:b4:3f:6c:14:40:20:54:72:6c:6e:8f:cc:
                    f8:8b:4b:2d:58:52:dc:11:8c:66:59:2f:a3:5c:9b:
                    4f:eb:00:8a:e8:de:7d:3c:99:89:83:7b:33:3e:2c:
                    e1:17:93:31:56:8d:09:bf:03:e2:5c:d3:1b:ad:71:
                    60:23:ba:b7:ff:2d:aa:cc:5c:fa:1f:ee:17:f0:af:
                    a4:ab:98:c3:fa:64:d0:61:21:fa:a5:e5:4d:95:75:
                    f5:ba:a1:82:9b:0c:d5:fb:2b:51:b0:11:e3:19:66:
                    c0:6d:bf:5e:d5:1a:e1:08:37:82:f7:81:2d:72:a0:
                    16:7c:6b:32:db:3f:54:58:5d:48:51:0d:a8:d2:16:
                    fa:7d:ff:66:98:0e:7f:27:4a:6e:a0:a3:dd:b1:6b:
                    59:71:56:e6:3a:19:d9:1d:d9:96:b6:2b:bb:7f:e4:
                    bf:04:db:a1:67:f0:5e:5c:1e:1c:c9:51:bd:5a:27:
                    2a:08:25:e8:e9:ee:42:be:3d:7e:e8:70:88:0c:96:
                    b6:28:0c:c9:03:60:5f:c0:86:c0:8c:4e:df:83:4f:
                    b7:78:e1:91:a1:c1:91:84:50:cc:0d:37:3c:1c:8c:
                    71:af:cf:39:30:b1:0d:0a:28:f9:07:21:53:3b:32:
                    1a:f7:1a:40:eb:e5:00:8b:a7:1d:36:bf:d8:15:a4:
                    a2:bd:0f:c6:11:2a:ff:0c:3d:ff:6f:4e:d6:ac:fe:
                    1c:87:a1:66:8c:e1:42:f8:56:c0:22:24:eb:06:fc:
                    ea:ad:d1:4a:38:4d:ad:21:c1:79:08:98:f2:22:88:
                    e1:b7:2d:c0:7f:d4:02:12:ba:6a:3c:dd:5c:11:93:
                    cb:a8:71:ed:1c:80:b7:9a:6e:a4:92:9c:3e:64:82:
                    aa:be:e4:77:82:cb:a0:4d:99:58:9b:7f:04:02:41:
                    d6:97:14:0a:4e:c8:57:c9:ea:47:29:53:14:cf:f9:
                    0c:dc:a4:af:13:4a:9e:c5:54:04:94:4f:18:f9:5f:
                    5b:ef:dc:01:e5:ee:4e:14:53:16:1f:d6:2e:4b:29:
                    bc:e3:17
                Exponent: 65537 (0x10001)
        X509v3 extensions:
            X509v3 Subject Key Identifier: 
                88:70:A9:37:70:8E:6C:06:7F:CE:1C:A4:F2:43:CC:0A:0C:D7:06:C4
            X509v3 Authority Key Identifier: 
                keyid:5A:48:4D:08:A7:36:08:AE:20:C5:CE:A1:8E:50:E2:1D:95:26:91:64

            X509v3 Basic Constraints: 
                CA:FALSE
            X509v3 Key Usage: 
                Digital Signature, Key Encipherment
    Signature Algorithm: sha256WithRSAEncryption
         9b:63:f7:77:3a:d2:2f:7f:97:fe:89:8a:be:76:8d:b7:82:49:
         45:44:d6:0a:0f:e8:d9:ca:ba:1d:38:bc:0c:e3:7e:50:8c:90:
         bf:6c:8b:62:23:89:e5:21:f0:b3:6c:4c:d9:bc:d3:ad:45:b3:
         96:b2:a9:cb:43:f1:b5:39:f1:68:c0:5d:04:58:a6:e1:59:dc:
         bb:ef:26:ea:2d:d1:98:36:61:e6:c9:8f:d6:5f:7f:7b:20:af:
         b3:f9:59:c9:26:97:f7:da:a4:9f:c0:1f:0a:71:cc:a6:1a:d3:
         57:87:08:a1:2a:3a:4c:13:c3:4f:fd:1c:a3:7e:da:5a:ec:03:
         df:ed:e3:a0:47:a2:03:e7:0d:9a:57:94:a2:30:43:53:94:92:
         99:30:18:e3:b0:31:35:2a:a5:3e:86:2a:fd:34:1b:f9:2d:a3:
         0b:c8:2c:ce:76:21:a0:c9:26:1c:95:2c:04:b0:67:f3:56:db:
         5f:10:cd:e4:99:bd:54:8a:bf:90:ad:cd:b3:8c:03:10:bc:bb:
         6e:ec:f6:34:ad:a4:66:5b:e1:68:fd:7f:80:6c:e5:db:54:98:
         2a:bc:b7:27:1d:73:f7:2f:45:62:1d:68:30:0b:91:9f:57:37:
         c7:cb:45:65:d7:64:d7:9c:0c:d3:c8:9f:fa:7a:12:4b:5b:8e:
         58:ee:54:f9:c7:3b:75:f2:13:9d:3b:ec:43:11:0f:fa:22:8b:
         7b:5a:b2:13:4f:b0:d2:a3:c6:8f:42:81:f0:31:09:b8:b7:da:
         af:26:84:d1:9e:4b:b0:3b:30:54:81:cf:10:c3:bc:0e:eb:ae:
         f2:05:40:4a:b6:e8:7b:eb:ee:bb:04:5b:47:a3:db:dc:4b:24:
         c9:a9:c8:91:96:68:36:bd:38:5f:91:4d:aa:e7:eb:1f:96:1f:
         1f:26:ff:5d:82:12:7b:c9:8d:28:61:c7:26:90:e7:ea:00:5f:
         81:88:25:3d:67:00:94:61:20:9d:14:cc:5f:f3:28:71:f9:c1:
         9a:45:d8:73:7a:5d:94:24:d9:05:90:19:a4:cf:29:44:2b:58:
         d5:a7:54:f8:0d:ac:3e:17:7f:3a:9e:64:17:77:c1:a3:9d:56:
         e9:53:c6:26:17:eb:56:9d:d7:f2:51:11:79:98:b6:18:e1:bb:
         b6:e8:7d:1c:f1:ee:f8:26:73:3c:86:17:a6:6e:cc:cc:be:aa:
         06:71:5d:36:07:ca:e3:cd:53:2a:43:69:ab:33:2b:00:78:f9:
         92:d2:76:40:28:ad:53:8f:53:54:08:04:e0:86:ef:1b:08:22:
         15:d2:4c:44:2e:ff:c6:e5:54:66:64:ab:fb:19:8a:41:a3:c0:
         64:88:3e:06:a6:f6:65:ae
-----BEGIN CERTIFICATE-----
MIIFuTCCA6GgAwIBAgIBATANBgkqhkiG9w0BAQsFADCBiTELMAkGA1UEBhMCSU4x
DjAMBgNVBAgMBURlbGhpMQ4wDAYDVQQHDAVEZWxoaTEOMAwGA1UECgwFSUlJVEQx
CzAJBgNVBAsMAk5TMRIwEAYDVQQDDAlHdXJzaW1yYW4xKTAnBgkqhkiG9w0BCQEW
Gmd1cnNpbXJhbjE0MDQxQGlpaXRkLmFjLmluMB4XDTE2MTEyMTE3NTU0M1oXDTE5
MDgxODE3NTU0M1owWjELMAkGA1UEBhMCSU4xDjAMBgNVBAgMBURlbGhpMQ4wDAYD
VQQHDAVEZWxoaTEOMAwGA1UECgwFSUlJVEQxCzAJBgNVBAsMAk5TMQ4wDAYDVQQD
DAVBbGljZTCCAiIwDQYJKoZIhvcNAQEBBQADggIPADCCAgoCggIBAMRpmbpjRHDS
RhQvro/m5mtxEO/lQzsKOuSr7RFYu2DVrCxRuEnDS7tcKgqWZic3nGGvF87GgVJg
JZrwfTwUWG1vY0YeHEWXSg+EXnZziolk2wtzKsg1C6h4TWeqHrsZzOqL0e/H3RRs
PTc6ruX+OumQLGpeiq4mO20GtD9sFEAgVHJsbo/M+ItLLVhS3BGMZlkvo1ybT+sA
iujefTyZiYN7Mz4s4ReTMVaNCb8D4lzTG61xYCO6t/8tqsxc+h/uF/CvpKuYw/pk
0GEh+qXlTZV19bqhgpsM1fsrUbAR4xlmwG2/XtUa4Qg3gveBLXKgFnxrMts/VFhd
SFENqNIW+n3/ZpgOfydKbqCj3bFrWXFW5joZ2R3ZlrYru3/kvwTboWfwXlweHMlR
vVonKggl6OnuQr49fuhwiAyWtigMyQNgX8CGwIxO34NPt3jhkaHBkYRQzA03PByM
ca/POTCxDQoo+QchUzsyGvcaQOvlAIunHTa/2BWkor0PxhEq/ww9/29O1qz+HIeh
ZozhQvhWwCIk6wb86q3RSjhNrSHBeQiY8iKI4bctwH/UAhK6ajzdXBGTy6hx7RyA
t5pupJKcPmSCqr7kd4LLoE2ZWJt/BAJB1pcUCk7IV8nqRylTFM/5DNykrxNKnsVU
BJRPGPlfW+/cAeXuThRTFh/WLkspvOMXAgMBAAGjWjBYMB0GA1UdDgQWBBSIcKk3
cI5sBn/OHKTyQ8wKDNcGxDAfBgNVHSMEGDAWgBRaSE0IpzYIriDFzqGOUOIdlSaR
ZDAJBgNVHRMEAjAAMAsGA1UdDwQEAwIFoDANBgkqhkiG9w0BAQsFAAOCAgEAm2P3
dzrSL3+X/omKvnaNt4JJRUTWCg/o2cq6HTi8DON+UIyQv2yLYiOJ5SHws2xM2bzT
rUWzlrKpy0PxtTnxaMBdBFim4Vncu+8m6i3RmDZh5smP1l9/eyCvs/lZySaX99qk
n8AfCnHMphrTV4cIoSo6TBPDT/0co37aWuwD3+3joEeiA+cNmleUojBDU5SSmTAY
47AxNSqlPoYq/TQb+S2jC8gsznYhoMkmHJUsBLBn81bbXxDN5Jm9VIq/kK3Ns4wD
ELy7buz2NK2kZlvhaP1/gGzl21SYKry3Jx1z9y9FYh1oMAuRn1c3x8tFZddk15wM
08if+noSS1uOWO5U+cc7dfITnTvsQxEP+iKLe1qyE0+w0qPGj0KB8DEJuLfaryaE
0Z5LsDswVIHPEMO8Duuu8gVASrboe+vuuwRbR6Pb3EskyanIkZZoNr04X5FNqufr
H5YfHyb/XYISe8mNKGHHJpDn6gBfgYglPWcAlGEgnRTMX/MocfnBmkXYc3pdlCTZ
BZAZpM8pRCtY1adU+A2sPhd/Op5kF3fBo51W6VPGJhfrVp3X8lEReZi2GOG7tuh9
HPHu+CZzPIYXpm7MzL6qBnFdNgfK481TKkNpqzMrAHj5ktJ2QCitU49TVAgE4Ibv
GwgiFdJMRC7/xuVUZmSr+xmKQaPAZIg+Bqb2Za4=
-----END CERTIFICATE-----
