Certificate:
    Data:
        Version: 3 (0x2)
        Serial Number: 3 (0x3)
    Signature Algorithm: sha256WithRSAEncryption
        Issuer: C=IN, ST=Delhi, L=Delhi, O=IIITD, OU=NS, CN=Gursimran/emailAddress=gursimran14041@iiitd.ac.in
        Validity
            Not Before: Nov 21 18:16:25 2016 GMT
            Not After : Aug 18 18:16:25 2019 GMT
        Subject: C=IN, ST=Delhi, L=Delhi, O=IIITD, OU=NS, CN=Charlie
        Subject Public Key Info:
            Public Key Algorithm: rsaEncryption
                Public-Key: (4096 bit)
                Modulus:
                    00:ec:d5:50:64:0e:48:45:1c:a9:5f:69:cb:e6:c9:
                    df:8b:a8:03:35:c8:ac:c1:06:04:ec:19:70:d4:29:
                    1e:c5:69:72:b2:13:88:fa:4b:33:d9:7e:fc:a1:86:
                    e9:00:27:cf:d1:0f:74:e3:c6:f2:3c:84:dd:50:87:
                    b9:dc:c1:e4:03:f6:23:79:7a:73:76:aa:d2:f8:c3:
                    0b:33:be:9c:35:36:8b:d8:56:b3:10:a4:e4:e2:8b:
                    55:0f:e5:e2:f0:b5:3d:b4:53:51:8d:1f:be:d1:7c:
                    e1:34:3d:8d:8a:29:1f:be:e9:e7:11:f6:28:5e:bb:
                    61:58:45:ca:b9:9f:67:18:11:68:dd:a8:93:79:97:
                    b2:a6:23:49:d5:f7:10:db:2f:d1:25:d1:6e:f8:17:
                    e6:1d:c1:0a:bf:c5:51:1e:b5:f2:fc:37:23:3b:93:
                    96:76:cf:ce:d9:3a:88:1d:fa:0f:2b:7c:80:5b:71:
                    af:bf:b1:9c:b2:10:1c:5f:66:16:84:96:cb:d2:e4:
                    dd:d6:c1:9a:ef:ca:78:12:5c:af:0b:df:9a:d8:c3:
                    e3:cc:c3:38:36:14:21:c6:81:23:44:d9:f5:df:04:
                    0d:8a:c0:43:6e:5e:e4:07:5e:19:62:d5:4c:77:8b:
                    64:17:6c:71:66:2d:25:0f:f2:6c:4b:4e:9a:fa:51:
                    22:d3:93:4b:88:c4:88:c7:74:1d:b3:82:a6:6e:02:
                    da:46:dc:1e:17:83:ca:1b:4a:ee:f2:33:32:68:e5:
                    93:f8:36:7b:f0:48:ee:2f:c7:43:d2:93:5b:a3:ba:
                    ec:39:ba:8b:75:39:93:89:eb:e2:03:da:8a:33:5d:
                    24:41:ea:76:6f:81:af:af:b3:0e:31:5b:3f:98:39:
                    65:0a:64:1a:9e:de:38:df:7e:38:65:dc:43:8e:40:
                    4c:01:63:d5:b2:3b:73:69:7a:35:9a:28:d1:ad:30:
                    06:19:4b:33:26:82:42:ce:c3:46:d5:63:d6:d1:db:
                    36:4f:63:9d:fd:9f:fd:91:8d:89:7d:3a:e4:f8:25:
                    90:69:3f:ed:e2:e1:40:61:f5:1d:7f:89:a7:62:5b:
                    ef:5b:01:d3:e9:e9:6d:a6:de:31:e9:5b:a3:40:f3:
                    d8:79:4c:de:51:56:6e:e1:b5:86:96:b7:73:d8:3d:
                    19:e2:2a:8b:e2:fc:91:e3:85:fd:57:c6:cb:79:a0:
                    e0:62:8d:eb:ad:28:b9:40:b3:94:ba:f6:a6:8a:2c:
                    01:fb:5c:ba:58:d5:aa:06:d5:1e:c0:02:10:e4:05:
                    ad:7b:4b:a7:e8:f5:a4:c7:40:1e:89:eb:97:44:f0:
                    22:50:70:b5:0f:b7:8b:7a:55:e2:9d:5a:b0:93:15:
                    6f:5d:db
                Exponent: 65537 (0x10001)
        X509v3 extensions:
            X509v3 Subject Key Identifier: 
                E7:4E:0A:FF:7D:1C:BA:DA:51:D0:87:E2:1A:49:2E:9F:6A:6C:23:66
            X509v3 Authority Key Identifier: 
                keyid:5A:48:4D:08:A7:36:08:AE:20:C5:CE:A1:8E:50:E2:1D:95:26:91:64

            X509v3 Basic Constraints: 
                CA:FALSE
            X509v3 Key Usage: 
                Digital Signature, Key Encipherment
    Signature Algorithm: sha256WithRSAEncryption
         0e:63:de:bf:17:70:87:5e:d9:ef:2e:b7:1e:8a:6e:ff:91:81:
         00:51:05:82:6e:aa:e7:10:1c:86:b2:a2:b0:0e:31:ce:06:5f:
         15:4c:d7:19:ee:55:ce:44:03:20:e0:4f:21:01:d4:f8:8f:66:
         05:9c:08:07:09:0a:c0:ae:ca:a8:35:2a:7e:88:df:37:d5:a3:
         9e:58:91:4e:32:30:b4:d9:a1:e8:ed:97:22:9f:82:e1:73:82:
         f3:a8:84:c3:dc:1b:9f:e9:aa:f8:f8:df:e7:eb:08:9b:2c:7e:
         00:c1:a6:a0:e8:d3:6a:de:98:c3:ad:fe:8a:90:e3:52:be:79:
         eb:3d:94:0c:79:38:33:b5:59:27:43:1e:33:e0:2a:7a:e1:f2:
         36:95:b4:ff:7d:c4:e3:16:e0:af:69:4e:cd:64:39:48:66:0f:
         16:e1:01:84:ff:11:56:12:f8:5e:c8:27:ec:a2:9c:29:e8:5f:
         87:c3:5c:de:7e:9a:7a:16:90:f5:55:36:21:1b:ac:e4:1a:94:
         22:c4:5e:5f:3a:70:6f:66:b0:68:1a:5e:bc:19:fb:62:40:05:
         4f:0f:1f:8d:9e:37:37:1a:4b:7f:d0:40:4f:e7:42:24:82:39:
         09:e4:f5:bb:5d:f5:e7:2e:07:15:8a:f9:a6:9c:c7:fa:f7:79:
         ce:df:6c:75:85:7a:18:f9:2c:01:28:28:3c:69:1b:11:7b:5e:
         5f:e3:2a:64:36:ff:96:7b:4c:86:65:84:69:16:f0:1c:a5:eb:
         37:e2:79:88:da:10:56:15:52:46:d4:ac:b1:b8:27:45:e0:06:
         54:11:67:aa:9c:4f:f7:01:2c:fe:86:fd:0a:7b:b2:8c:3e:f8:
         52:9d:a3:07:b6:cc:d6:be:23:a5:50:67:16:c9:8b:c8:c0:11:
         cb:dd:a8:23:50:7d:6e:d4:ac:10:aa:ed:cf:86:ba:00:98:bb:
         c6:cc:8e:6a:d1:9d:39:65:b1:cb:3a:9e:68:26:d6:d7:66:d1:
         57:03:1b:65:e1:9c:5a:95:7e:34:66:19:66:8b:dd:c0:e6:c1:
         11:fc:0b:ac:a7:76:5b:f4:2e:48:86:2c:61:3c:f4:c2:90:45:
         66:4b:4d:24:88:bc:07:22:e5:15:d5:89:c9:33:ea:41:d7:6f:
         4a:f5:9f:2a:ae:d4:ee:75:64:fa:45:2b:96:ec:7e:d9:b6:49:
         5f:0b:5c:aa:e3:53:07:3d:74:bf:c6:6b:bf:99:74:f4:8b:57:
         98:3f:0a:1e:fe:7a:55:e4:b8:f2:13:39:75:f9:ed:6c:2f:22:
         3f:25:05:35:07:ba:ac:37:44:54:eb:c2:7b:89:9b:06:72:d6:
         8a:e9:df:cd:b2:14:11:d2
-----BEGIN CERTIFICATE-----
MIIFuzCCA6OgAwIBAgIBAzANBgkqhkiG9w0BAQsFADCBiTELMAkGA1UEBhMCSU4x
DjAMBgNVBAgMBURlbGhpMQ4wDAYDVQQHDAVEZWxoaTEOMAwGA1UECgwFSUlJVEQx
CzAJBgNVBAsMAk5TMRIwEAYDVQQDDAlHdXJzaW1yYW4xKTAnBgkqhkiG9w0BCQEW
Gmd1cnNpbXJhbjE0MDQxQGlpaXRkLmFjLmluMB4XDTE2MTEyMTE4MTYyNVoXDTE5
MDgxODE4MTYyNVowXDELMAkGA1UEBhMCSU4xDjAMBgNVBAgMBURlbGhpMQ4wDAYD
VQQHDAVEZWxoaTEOMAwGA1UECgwFSUlJVEQxCzAJBgNVBAsMAk5TMRAwDgYDVQQD
DAdDaGFybGllMIICIjANBgkqhkiG9w0BAQEFAAOCAg8AMIICCgKCAgEA7NVQZA5I
RRypX2nL5snfi6gDNciswQYE7Blw1CkexWlyshOI+ksz2X78oYbpACfP0Q9048by
PITdUIe53MHkA/YjeXpzdqrS+MMLM76cNTaL2FazEKTk4otVD+Xi8LU9tFNRjR++
0XzhND2NiikfvunnEfYoXrthWEXKuZ9nGBFo3aiTeZeypiNJ1fcQ2y/RJdFu+Bfm
HcEKv8VRHrXy/DcjO5OWds/O2TqIHfoPK3yAW3Gvv7GcshAcX2YWhJbL0uTd1sGa
78p4ElyvC9+a2MPjzMM4NhQhxoEjRNn13wQNisBDbl7kB14ZYtVMd4tkF2xxZi0l
D/JsS06a+lEi05NLiMSIx3Qds4KmbgLaRtweF4PKG0ru8jMyaOWT+DZ78EjuL8dD
0pNbo7rsObqLdTmTieviA9qKM10kQep2b4Gvr7MOMVs/mDllCmQant443344ZdxD
jkBMAWPVsjtzaXo1mijRrTAGGUszJoJCzsNG1WPW0ds2T2Od/Z/9kY2JfTrk+CWQ
aT/t4uFAYfUdf4mnYlvvWwHT6eltpt4x6VujQPPYeUzeUVZu4bWGlrdz2D0Z4iqL
4vyR44X9V8bLeaDgYo3rrSi5QLOUuvamiiwB+1y6WNWqBtUewAIQ5AWte0un6PWk
x0AeieuXRPAiUHC1D7eLelXinVqwkxVvXdsCAwEAAaNaMFgwHQYDVR0OBBYEFOdO
Cv99HLraUdCH4hpJLp9qbCNmMB8GA1UdIwQYMBaAFFpITQinNgiuIMXOoY5Q4h2V
JpFkMAkGA1UdEwQCMAAwCwYDVR0PBAQDAgWgMA0GCSqGSIb3DQEBCwUAA4ICAQAO
Y96/F3CHXtnvLrceim7/kYEAUQWCbqrnEByGsqKwDjHOBl8VTNcZ7lXORAMg4E8h
AdT4j2YFnAgHCQrArsqoNSp+iN831aOeWJFOMjC02aHo7Zcin4Lhc4LzqITD3Buf
6ar4+N/n6wibLH4Awaag6NNq3pjDrf6KkONSvnnrPZQMeTgztVknQx4z4Cp64fI2
lbT/fcTjFuCvaU7NZDlIZg8W4QGE/xFWEvheyCfsopwp6F+Hw1zefpp6FpD1VTYh
G6zkGpQixF5fOnBvZrBoGl68GftiQAVPDx+Nnjc3Gkt/0EBP50IkgjkJ5PW7XfXn
LgcVivmmnMf693nO32x1hXoY+SwBKCg8aRsRe15f4ypkNv+We0yGZYRpFvAcpes3
4nmI2hBWFVJG1KyxuCdF4AZUEWeqnE/3ASz+hv0Ke7KMPvhSnaMHtszWviOlUGcW
yYvIwBHL3agjUH1u1KwQqu3PhroAmLvGzI5q0Z05ZbHLOp5oJtbXZtFXAxtl4Zxa
lX40Zhlmi93A5sER/Ausp3Zb9C5IhixhPPTCkEVmS00kiLwHIuUV1YnJM+pB129K
9Z8qrtTudWT6RSuW7H7ZtklfC1yq41MHPXS/xmu/mXT0i1eYPwoe/npV5LjyEzl1
+e1sLyI/JQU1B7qsN0RU68J7iZsGctaK6d/NshQR0g==
-----END CERTIFICATE-----
