Certificate:
    Data:
        Version: 3 (0x2)
        Serial Number: 1 (0x1)
    Signature Algorithm: sha256WithRSAEncryption
        Issuer: C=IN, ST=Delhi, L=Delhi, O=IIITD, OU=NS, CN=Gursimran/emailAddress=gursimran14041@iiitd.ac.in
        Validity
            Not Before: Nov 27 16:06:16 2016 GMT
            Not After : Aug 24 16:06:16 2019 GMT
        Subject: C=in, ST=del, L=del, O=iiitd, OU=ns, CN=alice
        Subject Public Key Info:
            Public Key Algorithm: rsaEncryption
                Public-Key: (4096 bit)
                Modulus:
                    00:c5:38:e1:58:fa:9c:b8:8f:9a:13:e9:d6:3d:8c:
                    8e:15:4b:b8:2a:61:f6:10:2e:64:63:35:c8:1b:1a:
                    05:27:c6:1d:f2:49:2b:86:27:82:bc:d3:df:d5:99:
                    89:a4:11:f7:0f:24:57:80:fd:c6:c2:a3:1a:d9:f3:
                    71:31:ea:61:ab:93:48:9c:d8:60:c1:c0:98:11:e3:
                    09:13:07:aa:47:b0:e1:55:e1:17:66:4a:ee:b2:5c:
                    e1:9a:31:4d:fc:b3:2b:dc:13:7b:f8:18:42:2e:e0:
                    b7:ca:9d:9a:e7:b7:1c:6c:d5:ab:aa:67:ff:0f:a2:
                    65:51:ea:4f:56:e5:f8:e6:ab:a5:3b:4d:30:1a:25:
                    4a:06:c5:b1:e4:7b:22:f9:bf:56:f5:03:44:dd:c4:
                    62:41:6b:b8:17:e3:f1:14:4c:c7:ef:ee:fe:25:02:
                    b2:a8:4a:dc:61:e9:bd:77:9d:68:92:dd:f8:73:48:
                    72:5c:77:b8:f1:37:ca:38:be:03:3c:d8:d3:c2:0b:
                    8e:3a:3f:e1:69:64:5b:a6:00:6b:aa:d4:f4:ca:34:
                    66:90:14:03:8d:c5:8e:1c:f4:d5:ed:5e:f2:59:8e:
                    1e:ea:e6:d3:68:64:d3:b9:f1:cc:0b:c5:21:81:6f:
                    9f:b1:d7:a6:d6:f6:03:26:59:9d:81:d2:e0:e1:af:
                    a7:a6:55:57:50:53:7c:bc:b3:5b:0c:fc:a8:c8:e9:
                    1c:ab:1d:45:fe:bc:12:7d:7f:fd:61:2c:93:97:5b:
                    45:5e:b4:1a:b4:e9:4c:9f:a8:03:2c:43:87:55:a3:
                    f7:6d:b0:dd:a9:b3:27:08:e2:75:4a:ba:ce:65:ae:
                    bc:5e:32:4d:db:ee:df:f5:59:53:b9:03:55:b7:41:
                    e0:00:e2:fc:05:db:b9:cc:ae:17:75:63:b7:e3:ac:
                    a1:0f:c2:c7:86:d6:94:ad:37:4e:4e:a3:85:1a:69:
                    59:9d:46:cf:72:f3:5f:80:85:46:d6:0b:e3:c0:8d:
                    d4:eb:bb:22:28:75:56:38:47:3d:eb:a0:aa:6f:89:
                    26:2e:28:ab:1b:40:15:27:5f:9d:4e:4c:b6:e6:57:
                    18:d1:a8:ac:5b:e1:fe:22:fb:16:e7:2c:d8:6e:ef:
                    bf:6d:cc:02:f3:b1:e8:71:d8:30:09:ab:f8:6d:30:
                    07:70:0f:f2:92:24:d3:19:b2:8f:04:1e:c7:f4:53:
                    36:7c:3e:f1:af:cf:f9:e4:bf:53:74:b3:07:1d:c6:
                    3a:da:5c:9c:50:c7:a5:1a:fe:89:41:97:38:3a:29:
                    fe:5d:5b:f3:2f:c6:81:85:83:66:75:d1:ff:a0:f2:
                    c3:ff:ba:47:9e:0f:84:58:1d:3c:39:64:f7:06:b9:
                    b4:2f:e5
                Exponent: 65537 (0x10001)
        X509v3 extensions:
            X509v3 Subject Key Identifier: 
                79:F0:B1:EC:85:80:FC:E9:01:14:02:F1:48:9C:27:81:C7:B4:C4:D0
            X509v3 Authority Key Identifier: 
                keyid:5A:48:4D:08:A7:36:08:AE:20:C5:CE:A1:8E:50:E2:1D:95:26:91:64

            X509v3 Basic Constraints: 
                CA:FALSE
            X509v3 Key Usage: 
                Digital Signature, Key Encipherment
    Signature Algorithm: sha256WithRSAEncryption
         c9:9a:59:20:39:06:f0:e8:26:32:7c:ba:8b:32:da:1d:e7:46:
         fc:dc:1f:f9:38:55:0b:d3:45:d0:fb:04:8c:78:a3:d0:80:24:
         5c:3c:c7:50:ce:a3:33:61:38:0e:f4:b1:b9:a7:23:4b:2e:ec:
         63:36:3e:ef:84:0a:3a:a7:d7:80:d2:74:94:eb:9f:84:dc:74:
         fb:67:c2:47:1c:ce:57:d3:07:9b:18:33:8f:c7:8b:53:c5:e9:
         ed:de:07:2f:29:e6:42:5e:25:2f:01:7e:8b:13:43:41:62:90:
         61:33:c6:71:21:be:69:5d:4d:0b:5f:b1:a3:48:c0:5e:41:ca:
         52:3f:3a:3b:3a:fb:96:ec:8c:d2:18:09:60:67:66:2f:36:d9:
         28:ac:12:0c:25:63:7b:f9:b1:87:34:bf:5b:3c:7b:26:c6:2d:
         e2:e0:9c:c9:57:de:ce:a4:c3:9b:6b:7d:fe:32:18:ed:80:b3:
         98:61:50:66:77:cf:ec:fb:00:77:fd:17:4f:36:1a:e3:e8:a6:
         23:a6:7d:6f:37:5c:81:b2:1a:3f:f7:cf:fa:0b:45:fb:4d:bc:
         60:90:88:a3:ad:70:41:c2:40:bf:cf:b5:b3:33:64:2d:3e:2e:
         bb:66:5d:55:6b:7a:49:12:0e:8f:3d:c8:1f:90:87:4a:a8:26:
         bb:85:a1:8b:d1:d9:61:7f:35:13:03:81:63:b9:d7:ed:2c:75:
         fa:39:9d:25:ed:c2:ac:66:66:ae:1b:b4:e8:bc:73:60:9d:37:
         a5:cc:64:44:4c:57:0d:44:f4:00:ae:c7:85:27:6a:06:fd:3c:
         26:7a:7f:98:53:27:df:81:d9:e2:dd:b9:86:f8:eb:31:d0:4c:
         07:f7:11:b6:1a:fa:0e:1c:e5:e7:8f:cb:e1:31:01:94:a6:9d:
         06:3c:94:1a:3f:d6:af:6d:15:32:10:85:5b:ec:66:38:53:dc:
         94:74:b5:e4:91:57:a8:41:0a:58:80:a3:86:55:32:ad:36:78:
         77:76:09:6c:60:e9:e5:ed:01:8e:40:12:18:af:4e:53:b4:53:
         bf:5b:32:72:14:43:b4:e0:32:16:30:e8:c8:67:60:19:10:26:
         cb:f4:0d:ce:81:d2:70:71:ae:74:f9:d7:ba:18:1d:c7:62:f6:
         90:99:9c:23:d7:ac:15:a5:b4:78:07:b3:21:47:df:6b:32:ff:
         da:7e:12:b6:5e:f1:32:46:83:02:15:23:77:08:90:e5:65:44:
         34:10:a3:e0:63:98:aa:cd:0a:a0:05:85:3f:a2:ab:f1:17:03:
         e2:99:7f:a7:8f:19:95:b1:8d:2d:3a:06:8d:45:29:54:02:e5:
         d4:04:b5:c6:64:95:fc:59
-----BEGIN CERTIFICATE-----
MIIFtTCCA52gAwIBAgIBATANBgkqhkiG9w0BAQsFADCBiTELMAkGA1UEBhMCSU4x
DjAMBgNVBAgMBURlbGhpMQ4wDAYDVQQHDAVEZWxoaTEOMAwGA1UECgwFSUlJVEQx
CzAJBgNVBAsMAk5TMRIwEAYDVQQDDAlHdXJzaW1yYW4xKTAnBgkqhkiG9w0BCQEW
Gmd1cnNpbXJhbjE0MDQxQGlpaXRkLmFjLmluMB4XDTE2MTEyNzE2MDYxNloXDTE5
MDgyNDE2MDYxNlowVjELMAkGA1UEBhMCaW4xDDAKBgNVBAgMA2RlbDEMMAoGA1UE
BwwDZGVsMQ4wDAYDVQQKDAVpaWl0ZDELMAkGA1UECwwCbnMxDjAMBgNVBAMMBWFs
aWNlMIICIjANBgkqhkiG9w0BAQEFAAOCAg8AMIICCgKCAgEAxTjhWPqcuI+aE+nW
PYyOFUu4KmH2EC5kYzXIGxoFJ8Yd8kkrhieCvNPf1ZmJpBH3DyRXgP3GwqMa2fNx
Mephq5NInNhgwcCYEeMJEweqR7DhVeEXZkruslzhmjFN/LMr3BN7+BhCLuC3yp2a
57ccbNWrqmf/D6JlUepPVuX45qulO00wGiVKBsWx5Hsi+b9W9QNE3cRiQWu4F+Px
FEzH7+7+JQKyqErcYem9d51okt34c0hyXHe48TfKOL4DPNjTwguOOj/haWRbpgBr
qtT0yjRmkBQDjcWOHPTV7V7yWY4e6ubTaGTTufHMC8UhgW+fsdem1vYDJlmdgdLg
4a+nplVXUFN8vLNbDPyoyOkcqx1F/rwSfX/9YSyTl1tFXrQatOlMn6gDLEOHVaP3
bbDdqbMnCOJ1SrrOZa68XjJN2+7f9VlTuQNVt0HgAOL8Bdu5zK4XdWO346yhD8LH
htaUrTdOTqOFGmlZnUbPcvNfgIVG1gvjwI3U67siKHVWOEc966Cqb4kmLiirG0AV
J1+dTky25lcY0aisW+H+IvsW5yzYbu+/bcwC87HocdgwCav4bTAHcA/ykiTTGbKP
BB7H9FM2fD7xr8/55L9TdLMHHcY62lycUMelGv6JQZc4Oin+XVvzL8aBhYNmddH/
oPLD/7pHng+EWB08OWT3Brm0L+UCAwEAAaNaMFgwHQYDVR0OBBYEFHnwseyFgPzp
ARQC8UicJ4HHtMTQMB8GA1UdIwQYMBaAFFpITQinNgiuIMXOoY5Q4h2VJpFkMAkG
A1UdEwQCMAAwCwYDVR0PBAQDAgWgMA0GCSqGSIb3DQEBCwUAA4ICAQDJmlkgOQbw
6CYyfLqLMtod50b83B/5OFUL00XQ+wSMeKPQgCRcPMdQzqMzYTgO9LG5pyNLLuxj
Nj7vhAo6p9eA0nSU65+E3HT7Z8JHHM5X0webGDOPx4tTxent3gcvKeZCXiUvAX6L
E0NBYpBhM8ZxIb5pXU0LX7GjSMBeQcpSPzo7OvuW7IzSGAlgZ2YvNtkorBIMJWN7
+bGHNL9bPHsmxi3i4JzJV97OpMOba33+MhjtgLOYYVBmd8/s+wB3/RdPNhrj6KYj
pn1vN1yBsho/98/6C0X7TbxgkIijrXBBwkC/z7WzM2QtPi67Zl1Va3pJEg6PPcgf
kIdKqCa7haGL0dlhfzUTA4FjudftLHX6OZ0l7cKsZmauG7TovHNgnTelzGRETFcN
RPQArseFJ2oG/Twmen+YUyffgdni3bmG+Osx0EwH9xG2GvoOHOXnj8vhMQGUpp0G
PJQaP9avbRUyEIVb7GY4U9yUdLXkkVeoQQpYgKOGVTKtNnh3dglsYOnl7QGOQBIY
r05TtFO/WzJyFEO04DIWMOjIZ2AZECbL9A3OgdJwca50+de6GB3HYvaQmZwj16wV
pbR4B7MhR99rMv/afhK2XvEyRoMCFSN3CJDlZUQ0EKPgY5iqzQqgBYU/oqvxFwPi
mX+njxmVsY0tOgaNRSlUAuXUBLXGZJX8WQ==
-----END CERTIFICATE-----
