Certificate:
    Data:
        Version: 3 (0x2)
        Serial Number: 2 (0x2)
    Signature Algorithm: sha256WithRSAEncryption
        Issuer: C=IN, ST=Delhi, L=Delhi, O=IIITD, OU=NS, CN=Gursimran/emailAddress=gursimran14041@iiitd.ac.in
        Validity
            Not Before: Nov 27 16:28:54 2016 GMT
            Not After : Aug 24 16:28:54 2019 GMT
        Subject: C=in, ST=del, L=del, O=iiitd, OU=ns, CN=alice
        Subject Public Key Info:
            Public Key Algorithm: rsaEncryption
                Public-Key: (4096 bit)
                Modulus:
                    00:ba:3b:b7:4d:7a:dd:c7:a9:6c:11:36:c2:ce:fd:
                    09:80:4d:70:b6:5a:28:11:d1:20:c1:4f:b0:f7:65:
                    25:6a:a0:37:c8:65:4e:09:77:e9:a3:39:4b:c3:bd:
                    af:83:3d:35:23:56:14:2e:22:96:f6:d2:28:ab:ed:
                    bd:68:3f:fa:37:46:06:ce:99:37:23:13:c7:d1:e8:
                    9a:e7:22:d4:dd:cc:1a:58:0b:1d:73:91:81:be:64:
                    81:e0:91:23:62:cd:23:ce:a8:d6:51:38:13:8f:fe:
                    74:53:8a:bb:22:d4:3c:8a:0d:56:2e:ac:3f:0c:df:
                    18:9e:53:9f:87:de:67:dc:68:84:c5:3f:f9:98:e7:
                    17:bc:eb:dd:0a:4c:23:1c:5e:be:76:81:2c:4c:55:
                    72:8d:a4:49:b4:11:e8:0c:48:29:81:fb:83:5a:59:
                    d4:3a:fa:da:66:2f:6a:a5:50:4e:dc:5e:8c:16:02:
                    27:23:f8:db:f1:df:d3:cc:3f:4d:bc:e9:bb:05:f2:
                    66:81:f8:e0:f7:ca:04:4c:7e:0e:1c:28:c6:19:b7:
                    7f:e2:24:ce:3b:32:34:90:70:6d:cd:28:04:7a:f5:
                    f0:fb:e5:b5:fd:19:3f:31:0e:01:d7:99:b6:9f:48:
                    b2:a6:8b:1b:d6:89:d4:b2:71:6c:c7:28:75:a8:4c:
                    74:57:16:f3:b4:98:96:de:63:a8:14:f5:06:b6:35:
                    70:ab:21:da:5e:7c:4b:8f:12:a9:ca:d2:77:97:78:
                    b7:0b:79:ce:71:89:ba:dd:eb:b1:57:1c:64:5f:d9:
                    e2:fe:7d:cb:51:07:b9:37:56:57:69:f8:ee:2c:1d:
                    ec:17:dc:31:a2:1c:78:75:5a:96:e9:4a:05:a5:1d:
                    27:53:76:11:23:ec:78:08:b9:f1:c8:dc:81:86:be:
                    e8:26:e0:7d:23:40:f8:3d:00:b2:39:94:98:9f:02:
                    07:1a:ed:67:de:3f:09:b3:2a:f1:4d:ec:de:cc:e3:
                    c7:1b:5b:e7:45:e2:66:2b:e9:25:d3:62:1e:b7:d2:
                    d6:08:1a:a9:61:e0:1f:05:a9:43:bf:c6:0b:54:4e:
                    fb:6a:04:47:88:27:32:c8:0c:18:99:24:8b:b4:a9:
                    c4:83:d6:de:df:ab:f4:69:e9:9e:b1:68:5c:65:a1:
                    60:73:ce:e3:d8:eb:f7:3d:c2:aa:bf:a0:d4:53:53:
                    fc:46:5e:55:0a:72:68:4d:60:b1:cd:7a:a1:ca:61:
                    d6:c1:fa:7d:f8:fb:31:a4:6f:1c:3f:f7:ba:d9:3e:
                    bb:b0:2f:3c:54:fa:bd:1c:ed:73:72:45:95:cc:c5:
                    f0:c0:72:9a:53:14:3b:69:59:00:7f:90:85:58:32:
                    ae:7b:c5
                Exponent: 65537 (0x10001)
        X509v3 extensions:
            X509v3 Subject Key Identifier: 
                9C:B7:02:B6:5E:07:5D:41:D2:BE:06:1E:96:25:5D:CF:7B:95:A5:C3
            X509v3 Authority Key Identifier: 
                keyid:5A:48:4D:08:A7:36:08:AE:20:C5:CE:A1:8E:50:E2:1D:95:26:91:64

            X509v3 Basic Constraints: 
                CA:FALSE
            X509v3 Key Usage: 
                Digital Signature, Key Encipherment
    Signature Algorithm: sha256WithRSAEncryption
         8e:fe:cf:28:20:75:61:39:7d:d5:e4:db:18:5c:df:67:0b:7a:
         d2:1f:a5:ea:c8:3e:7c:69:ae:b2:ed:93:35:0c:97:fb:1c:53:
         ab:03:f4:f5:d7:5b:af:e9:65:a2:6e:46:39:e1:64:0c:c5:70:
         24:aa:6e:c2:b3:62:d7:31:aa:63:db:8a:6c:39:c7:9c:d6:a2:
         ab:eb:42:21:4b:2c:61:7e:28:31:d9:4d:b1:4f:dc:db:a5:7a:
         51:16:3f:8e:7f:05:4b:75:df:75:0c:cd:fa:7b:3a:15:cd:a5:
         7d:29:e4:1b:11:ec:5b:a1:46:b2:aa:b7:83:97:03:08:74:de:
         27:a7:ad:29:d7:02:a8:9e:3a:7d:c6:1c:ca:21:64:9b:10:11:
         01:6d:dc:a9:0d:a6:ab:13:3c:ad:78:5e:ce:06:4d:5b:5d:4f:
         04:c4:ca:18:4a:5b:40:b9:52:23:50:8a:51:da:32:12:9b:49:
         41:d3:66:20:c2:2c:8b:c9:3c:4c:43:3b:25:7d:03:56:7d:9e:
         0c:1d:24:c5:fb:fd:54:ed:dc:43:e3:85:c7:51:41:53:8d:29:
         00:47:c4:31:37:92:b6:29:d0:d5:68:58:9f:72:d9:27:c3:0c:
         94:9a:68:50:85:62:0f:9e:d4:b6:56:96:41:e9:e6:fa:95:f4:
         3a:ea:a1:44:8e:f7:9b:bd:83:76:af:19:12:02:02:03:de:67:
         1c:d8:21:7e:40:68:3c:d1:f2:bf:50:43:f4:6b:aa:c8:9d:4e:
         a8:04:85:1b:ee:71:33:e5:e5:3d:82:11:cd:15:ca:ac:0e:58:
         5f:53:de:74:26:f6:b0:be:ec:73:45:6e:42:c4:5a:71:ef:33:
         2e:39:5d:ad:3a:2b:08:ec:80:de:2f:60:af:37:ff:30:41:9a:
         1b:a4:29:ea:94:99:e0:22:b6:5c:c1:26:7c:02:cf:97:8d:7e:
         f6:95:9d:98:30:42:98:ed:bf:9a:9a:6d:35:e3:ae:98:79:e5:
         2f:2a:62:dd:61:bd:45:24:79:86:ee:6c:4a:01:32:aa:9a:93:
         ad:8d:7e:46:26:b8:92:5d:42:d0:cd:37:be:8d:c0:ac:c6:57:
         ad:99:ed:33:34:f2:80:38:a8:a6:6f:76:41:ad:0f:ca:6e:d5:
         22:0a:c9:4e:17:61:b1:54:c8:56:54:e7:88:85:af:18:31:bf:
         83:9e:b0:23:8f:d2:57:d5:9a:8f:b0:15:61:1a:b2:8e:ae:94:
         02:84:c6:d2:19:61:8f:1b:ea:be:80:3a:d3:c9:e7:de:1f:07:
         98:d9:5f:69:4f:b3:be:b8:38:ee:ee:0c:d8:26:0e:01:5b:8c:
         ab:9a:85:2e:fd:ad:51:93
-----BEGIN CERTIFICATE-----
MIIFtTCCA52gAwIBAgIBAjANBgkqhkiG9w0BAQsFADCBiTELMAkGA1UEBhMCSU4x
DjAMBgNVBAgMBURlbGhpMQ4wDAYDVQQHDAVEZWxoaTEOMAwGA1UECgwFSUlJVEQx
CzAJBgNVBAsMAk5TMRIwEAYDVQQDDAlHdXJzaW1yYW4xKTAnBgkqhkiG9w0BCQEW
Gmd1cnNpbXJhbjE0MDQxQGlpaXRkLmFjLmluMB4XDTE2MTEyNzE2Mjg1NFoXDTE5
MDgyNDE2Mjg1NFowVjELMAkGA1UEBhMCaW4xDDAKBgNVBAgMA2RlbDEMMAoGA1UE
BwwDZGVsMQ4wDAYDVQQKDAVpaWl0ZDELMAkGA1UECwwCbnMxDjAMBgNVBAMMBWFs
aWNlMIICIjANBgkqhkiG9w0BAQEFAAOCAg8AMIICCgKCAgEAuju3TXrdx6lsETbC
zv0JgE1wtlooEdEgwU+w92UlaqA3yGVOCXfpozlLw72vgz01I1YULiKW9tIoq+29
aD/6N0YGzpk3IxPH0eia5yLU3cwaWAsdc5GBvmSB4JEjYs0jzqjWUTgTj/50U4q7
ItQ8ig1WLqw/DN8YnlOfh95n3GiExT/5mOcXvOvdCkwjHF6+doEsTFVyjaRJtBHo
DEgpgfuDWlnUOvraZi9qpVBO3F6MFgInI/jb8d/TzD9NvOm7BfJmgfjg98oETH4O
HCjGGbd/4iTOOzI0kHBtzSgEevXw++W1/Rk/MQ4B15m2n0iyposb1onUsnFsxyh1
qEx0VxbztJiW3mOoFPUGtjVwqyHaXnxLjxKpytJ3l3i3C3nOcYm63euxVxxkX9ni
/n3LUQe5N1ZXafjuLB3sF9wxohx4dVqW6UoFpR0nU3YRI+x4CLnxyNyBhr7oJuB9
I0D4PQCyOZSYnwIHGu1n3j8JsyrxTezezOPHG1vnReJmK+kl02Iet9LWCBqpYeAf
BalDv8YLVE77agRHiCcyyAwYmSSLtKnEg9be36v0aemesWhcZaFgc87j2Ov3PcKq
v6DUU1P8Rl5VCnJoTWCxzXqhymHWwfp9+PsxpG8cP/e62T67sC88VPq9HO1zckWV
zMXwwHKaUxQ7aVkAf5CFWDKue8UCAwEAAaNaMFgwHQYDVR0OBBYEFJy3ArZeB11B
0r4GHpYlXc97laXDMB8GA1UdIwQYMBaAFFpITQinNgiuIMXOoY5Q4h2VJpFkMAkG
A1UdEwQCMAAwCwYDVR0PBAQDAgWgMA0GCSqGSIb3DQEBCwUAA4ICAQCO/s8oIHVh
OX3V5NsYXN9nC3rSH6XqyD58aa6y7ZM1DJf7HFOrA/T111uv6WWibkY54WQMxXAk
qm7Cs2LXMapj24psOcec1qKr60IhSyxhfigx2U2xT9zbpXpRFj+OfwVLdd91DM36
ezoVzaV9KeQbEexboUayqreDlwMIdN4np60p1wKonjp9xhzKIWSbEBEBbdypDaar
EzyteF7OBk1bXU8ExMoYSltAuVIjUIpR2jISm0lB02YgwiyLyTxMQzslfQNWfZ4M
HSTF+/1U7dxD44XHUUFTjSkAR8QxN5K2KdDVaFifctknwwyUmmhQhWIPntS2VpZB
6eb6lfQ66qFEjvebvYN2rxkSAgID3mcc2CF+QGg80fK/UEP0a6rInU6oBIUb7nEz
5eU9ghHNFcqsDlhfU950JvawvuxzRW5CxFpx7zMuOV2tOisI7IDeL2CvN/8wQZob
pCnqlJngIrZcwSZ8As+XjX72lZ2YMEKY7b+amm01466YeeUvKmLdYb1FJHmG7mxK
ATKqmpOtjX5GJriSXULQzTe+jcCsxletme0zNPKAOKimb3ZBrQ/KbtUiCslOF2Gx
VMhWVOeIha8YMb+DnrAjj9JX1ZqPsBVhGrKOrpQChMbSGWGPG+q+gDrTyefeHweY
2V9pT7O+uDju7gzYJg4BW4yrmoUu/a1Rkw==
-----END CERTIFICATE-----
