Certificate:
    Data:
        Version: 3 (0x2)
        Serial Number: 3 (0x3)
    Signature Algorithm: sha256WithRSAEncryption
        Issuer: C=IN, ST=Delhi, L=Delhi, O=IIITD, OU=NS, CN=Gursimran/emailAddress=gursimran14041@iiitd.ac.in
        Validity
            Not Before: Nov 27 16:29:50 2016 GMT
            Not After : Aug 24 16:29:50 2019 GMT
        Subject: C=in, ST=del, L=del, O=iiitd, OU=ns, CN=bob
        Subject Public Key Info:
            Public Key Algorithm: rsaEncryption
                Public-Key: (4096 bit)
                Modulus:
                    00:cd:f1:3c:ff:be:29:f9:a4:1c:4d:4f:2e:b7:41:
                    04:cf:74:30:07:3c:e1:ce:98:9c:90:62:46:6e:e8:
                    91:64:42:5c:24:25:6d:d3:d3:f4:86:db:9c:44:e8:
                    c1:a9:1d:37:00:13:6a:0d:fe:b4:73:9b:56:1e:c9:
                    02:57:a2:44:45:8a:25:4c:30:cf:9a:d7:5a:a8:9b:
                    13:a6:ac:63:66:79:dc:1c:64:c1:24:80:8e:85:5e:
                    ab:65:7d:f1:85:bb:49:7a:ae:f3:29:d9:75:1c:e8:
                    bb:b2:49:7f:7a:c6:4e:36:83:10:47:47:39:e3:00:
                    51:bf:78:86:d0:67:6c:af:cd:ef:28:c4:a4:da:dc:
                    24:4d:92:f3:63:b4:a5:14:21:ad:8a:73:a3:d9:81:
                    09:c6:cc:c8:eb:62:c1:14:7d:c8:ed:90:fe:c4:11:
                    17:1e:4f:e4:b1:e9:63:22:03:89:6f:b1:9a:cd:1a:
                    0f:e7:db:d1:a7:cf:f9:9d:bf:72:f8:98:5d:f1:d6:
                    33:34:9b:17:34:92:8d:e0:49:fa:61:4b:81:7f:ea:
                    ed:28:4c:69:79:5c:f7:71:c7:c2:37:a0:91:01:16:
                    15:47:ee:29:02:86:68:d5:d4:98:db:99:ca:46:c3:
                    ff:29:c5:a6:ef:87:7f:13:52:04:fb:2d:c3:a7:bc:
                    d2:a5:97:b2:6e:8e:75:87:aa:fb:f5:e5:a9:81:a3:
                    b6:cb:f1:99:f8:cd:9e:d7:d7:38:30:76:ad:5a:b8:
                    27:48:57:e4:6c:32:5e:28:0a:c3:50:9a:c0:8c:c3:
                    88:2f:cf:dd:8a:39:e4:35:c4:0d:55:61:41:bc:59:
                    09:15:9b:f9:07:d6:ab:37:b7:e0:a6:56:e6:0f:a4:
                    23:ff:a5:9a:8d:1f:5c:e7:a7:43:eb:be:c2:86:aa:
                    26:b1:55:12:ca:3e:63:02:f5:96:89:3d:14:fa:e9:
                    b6:04:b8:b2:e7:bf:81:5e:8b:ff:fb:11:62:9f:56:
                    06:b4:21:1c:1c:c7:27:f0:cf:23:f9:ed:f9:b0:80:
                    d0:c0:d1:5e:d8:79:ef:6c:43:31:5a:d6:bd:d3:dd:
                    78:55:aa:68:3e:61:7e:e0:b5:9a:18:fc:18:07:16:
                    67:fc:ec:94:3a:5e:62:70:05:a3:60:9f:44:c1:07:
                    fa:3a:e1:92:95:eb:b6:0c:82:25:a2:50:b8:dd:cc:
                    bd:a4:11:12:e9:d4:2e:6a:b0:ee:75:32:20:c7:1d:
                    af:f2:dc:96:d0:53:83:f9:a6:70:20:c0:af:ca:3e:
                    3e:ec:e4:15:b0:c1:bf:f6:1f:a7:4f:d6:9a:2d:42:
                    fc:f2:e9:fc:a0:42:30:e0:28:c2:85:1f:3b:2e:90:
                    15:9d:69
                Exponent: 65537 (0x10001)
        X509v3 extensions:
            X509v3 Subject Key Identifier: 
                99:98:A6:FC:70:E8:29:E3:FA:FC:49:68:AF:A8:64:9E:17:42:E5:1E
            X509v3 Authority Key Identifier: 
                keyid:5A:48:4D:08:A7:36:08:AE:20:C5:CE:A1:8E:50:E2:1D:95:26:91:64

            X509v3 Basic Constraints: 
                CA:FALSE
            X509v3 Key Usage: 
                Digital Signature, Key Encipherment
    Signature Algorithm: sha256WithRSAEncryption
         7f:45:8a:ff:f6:7e:b9:80:51:72:70:7c:31:c7:05:71:a6:58:
         1b:2b:03:ff:4c:7e:0b:5d:0b:2b:be:75:3b:61:e5:53:e8:61:
         d8:6b:2d:ae:2a:33:29:d3:5b:4f:d6:97:70:1a:f6:08:43:2a:
         94:13:be:57:0b:a6:da:49:ae:b9:ba:3b:db:cc:40:33:d7:10:
         81:d9:67:93:e6:c3:c1:34:da:0e:e9:f9:c4:20:f2:5a:e6:79:
         ab:20:e1:29:d4:61:d0:df:53:4c:bc:01:3a:50:36:c4:3a:67:
         2f:17:f5:a4:72:c2:57:5a:65:40:3b:af:e3:92:38:2d:13:be:
         ca:1c:03:dd:00:a4:36:43:46:1b:bf:96:47:08:d7:0b:dc:25:
         86:5d:c6:8f:90:18:ea:c5:40:d7:3f:33:eb:e3:e7:0f:22:d1:
         a7:35:b1:c7:a9:12:31:e8:7a:e3:4c:e6:23:69:3d:ea:49:4b:
         ea:82:f8:3c:95:6a:7b:3a:02:0a:03:e6:4d:30:1f:84:56:08:
         d4:55:e0:9f:b7:c6:2e:88:7c:39:31:eb:d4:13:97:82:b1:3c:
         ab:0d:11:f5:2c:62:1e:e9:09:11:a7:95:8b:2b:22:ee:13:db:
         1f:23:c8:bf:31:32:2d:6d:ab:a2:32:25:a1:fc:49:66:17:4a:
         94:d1:d9:05:94:ce:13:ba:85:28:d6:6b:1c:17:e8:90:f0:2a:
         ce:10:58:21:e4:b7:66:54:9a:79:fc:31:2f:10:df:32:51:1e:
         6c:b9:92:62:b6:7e:c2:42:88:0a:9f:e4:e9:bc:f1:d4:51:e9:
         09:8a:ec:31:b3:85:8f:88:c3:64:cc:c5:88:ad:dd:0e:dc:3e:
         5e:51:87:24:fd:eb:76:1a:69:f3:5d:88:08:2f:c9:12:cb:4a:
         bb:4f:cb:1d:d9:02:c5:f2:7f:f9:6c:11:4a:d0:64:92:52:8b:
         6e:ef:3a:0f:6d:a4:ad:0a:53:cc:d1:a6:af:7c:23:b4:d7:cf:
         62:55:31:18:18:e0:44:69:e0:90:a1:20:c9:d9:19:d2:fd:57:
         15:66:8e:03:6e:9b:f4:af:d9:71:0e:ce:bd:48:cb:b4:71:2a:
         2a:fb:91:3d:5f:4e:81:ac:1d:13:12:1d:61:36:39:30:03:6f:
         be:48:e8:32:e3:0c:20:ee:9b:04:d1:65:0f:c2:6f:bd:53:15:
         17:7e:89:96:7c:95:b2:82:65:70:82:87:87:a7:4b:02:88:ab:
         38:e2:34:07:a1:69:ae:2d:21:c9:c1:c9:e2:84:87:c8:bb:7e:
         34:ea:41:26:84:67:65:fd:fe:27:2c:0b:41:ae:fb:cb:07:20:
         64:7e:a7:aa:70:f2:03:1c
-----BEGIN CERTIFICATE-----
MIIFszCCA5ugAwIBAgIBAzANBgkqhkiG9w0BAQsFADCBiTELMAkGA1UEBhMCSU4x
DjAMBgNVBAgMBURlbGhpMQ4wDAYDVQQHDAVEZWxoaTEOMAwGA1UECgwFSUlJVEQx
CzAJBgNVBAsMAk5TMRIwEAYDVQQDDAlHdXJzaW1yYW4xKTAnBgkqhkiG9w0BCQEW
Gmd1cnNpbXJhbjE0MDQxQGlpaXRkLmFjLmluMB4XDTE2MTEyNzE2Mjk1MFoXDTE5
MDgyNDE2Mjk1MFowVDELMAkGA1UEBhMCaW4xDDAKBgNVBAgMA2RlbDEMMAoGA1UE
BwwDZGVsMQ4wDAYDVQQKDAVpaWl0ZDELMAkGA1UECwwCbnMxDDAKBgNVBAMMA2Jv
YjCCAiIwDQYJKoZIhvcNAQEBBQADggIPADCCAgoCggIBAM3xPP++KfmkHE1PLrdB
BM90MAc84c6YnJBiRm7okWRCXCQlbdPT9IbbnETowakdNwATag3+tHObVh7JAlei
REWKJUwwz5rXWqibE6asY2Z53BxkwSSAjoVeq2V98YW7SXqu8ynZdRzou7JJf3rG
TjaDEEdHOeMAUb94htBnbK/N7yjEpNrcJE2S82O0pRQhrYpzo9mBCcbMyOtiwRR9
yO2Q/sQRFx5P5LHpYyIDiW+xms0aD+fb0afP+Z2/cviYXfHWMzSbFzSSjeBJ+mFL
gX/q7ShMaXlc93HHwjegkQEWFUfuKQKGaNXUmNuZykbD/ynFpu+HfxNSBPstw6e8
0qWXsm6OdYeq+/XlqYGjtsvxmfjNntfXODB2rVq4J0hX5GwyXigKw1CawIzDiC/P
3Yo55DXEDVVhQbxZCRWb+QfWqze34KZW5g+kI/+lmo0fXOenQ+u+woaqJrFVEso+
YwL1lok9FPrptgS4sue/gV6L//sRYp9WBrQhHBzHJ/DPI/nt+bCA0MDRXth572xD
MVrWvdPdeFWqaD5hfuC1mhj8GAcWZ/zslDpeYnAFo2CfRMEH+jrhkpXrtgyCJaJQ
uN3MvaQREunULmqw7nUyIMcdr/LcltBTg/mmcCDAr8o+PuzkFbDBv/Yfp0/Wmi1C
/PLp/KBCMOAowoUfOy6QFZ1pAgMBAAGjWjBYMB0GA1UdDgQWBBSZmKb8cOgp4/r8
SWivqGSeF0LlHjAfBgNVHSMEGDAWgBRaSE0IpzYIriDFzqGOUOIdlSaRZDAJBgNV
HRMEAjAAMAsGA1UdDwQEAwIFoDANBgkqhkiG9w0BAQsFAAOCAgEAf0WK//Z+uYBR
cnB8MccFcaZYGysD/0x+C10LK751O2HlU+hh2GstriozKdNbT9aXcBr2CEMqlBO+
Vwum2kmuubo728xAM9cQgdlnk+bDwTTaDun5xCDyWuZ5qyDhKdRh0N9TTLwBOlA2
xDpnLxf1pHLCV1plQDuv45I4LRO+yhwD3QCkNkNGG7+WRwjXC9wlhl3Gj5AY6sVA
1z8z6+PnDyLRpzWxx6kSMeh640zmI2k96klL6oL4PJVqezoCCgPmTTAfhFYI1FXg
n7fGLoh8OTHr1BOXgrE8qw0R9SxiHukJEaeViysi7hPbHyPIvzEyLW2rojIlofxJ
ZhdKlNHZBZTOE7qFKNZrHBfokPAqzhBYIeS3ZlSaefwxLxDfMlEebLmSYrZ+wkKI
Cp/k6bzx1FHpCYrsMbOFj4jDZMzFiK3dDtw+XlGHJP3rdhpp812ICC/JEstKu0/L
HdkCxfJ/+WwRStBkklKLbu86D22krQpTzNGmr3wjtNfPYlUxGBjgRGngkKEgydkZ
0v1XFWaOA26b9K/ZcQ7OvUjLtHEqKvuRPV9OgawdExIdYTY5MANvvkjoMuMMIO6b
BNFlD8JvvVMVF36JlnyVsoJlcIKHh6dLAoirOOI0B6Fpri0hycHJ4oSHyLt+NOpB
JoRnZf3+JywLQa77ywcgZH6nqnDyAxw=
-----END CERTIFICATE-----
