Certificate:
    Data:
        Version: 3 (0x2)
        Serial Number: 4 (0x4)
    Signature Algorithm: sha256WithRSAEncryption
        Issuer: C=IN, ST=Delhi, L=Delhi, O=IIITD, OU=NS, CN=Gursimran/emailAddress=gursimran14041@iiitd.ac.in
        Validity
            Not Before: Nov 27 16:35:24 2016 GMT
            Not After : Aug 24 16:35:24 2019 GMT
        Subject: C=in, ST=del, L=del, O=Internet Widgits Pty Ltd, CN=charlie
        Subject Public Key Info:
            Public Key Algorithm: rsaEncryption
                Public-Key: (4096 bit)
                Modulus:
                    00:bd:ce:66:7c:a0:74:99:22:54:0b:83:af:bb:e7:
                    e9:2e:77:32:f9:f0:40:f4:e8:60:67:10:c6:7e:e2:
                    82:1a:3c:f0:c5:e2:d7:76:37:d9:a7:a3:50:a1:6b:
                    f7:fb:91:bc:b4:88:87:0f:b0:38:15:84:1d:0c:9e:
                    2f:29:82:5b:5c:7c:0c:ee:b6:43:78:0b:89:23:01:
                    5a:2b:cc:d0:b6:d9:3a:53:66:4f:6c:02:46:52:db:
                    11:e7:17:dc:5c:37:97:81:0b:bf:45:d9:bc:e7:f5:
                    0f:cd:74:d5:98:81:13:b5:84:ee:42:32:72:28:31:
                    71:13:28:2a:65:65:36:a6:ea:4e:bc:34:45:be:8b:
                    ff:66:38:1c:a5:81:55:ec:f1:52:db:c8:6d:91:ab:
                    8a:c3:6c:4f:6b:78:47:8e:b1:c3:3a:d7:99:5c:7a:
                    d4:dc:7d:4e:6a:7b:17:f0:17:39:a9:80:bc:a0:24:
                    06:7a:15:b0:41:eb:6d:8e:87:46:42:ed:8a:4c:69:
                    09:5c:7d:3c:83:04:6a:be:7f:56:e6:6f:a2:cd:33:
                    f5:de:4d:cc:18:e2:69:f4:16:22:82:68:14:50:d0:
                    cc:0b:04:4b:53:73:c6:49:aa:98:23:7a:52:23:47:
                    21:e5:20:30:17:10:67:54:6d:77:db:a2:55:31:5f:
                    b0:b7:75:40:18:60:83:4d:68:b4:e5:ec:35:03:d8:
                    cf:71:64:39:18:df:6c:d4:f4:86:20:9c:8f:a6:2f:
                    89:e3:fe:27:f7:61:09:8f:c1:1b:46:52:d2:bb:91:
                    e8:32:8a:f9:81:5d:be:f5:1b:da:71:ef:48:ad:54:
                    95:d8:0f:65:29:13:a0:ec:8f:9a:52:0b:4f:ee:eb:
                    df:40:fe:d3:5b:66:83:e1:d2:0d:8c:3d:0c:87:05:
                    66:4e:ba:aa:88:91:c5:f8:70:b8:e6:5f:7d:5f:b7:
                    07:58:e8:ef:73:29:82:1e:63:47:07:40:af:f0:f5:
                    e2:68:37:26:b3:cc:de:1a:d7:ad:cc:8f:c4:eb:89:
                    00:63:2b:68:ef:63:bb:70:e4:ae:9f:a5:26:0f:2c:
                    25:a9:17:9e:ba:12:93:9a:fe:44:a8:73:b8:b7:1f:
                    70:75:d6:a4:67:f4:98:b2:d8:cd:6c:76:4a:a6:63:
                    3e:d1:ea:8d:11:25:aa:32:b5:47:c2:10:35:88:9c:
                    27:fa:39:e6:ae:56:7f:e3:f9:68:63:08:f4:d8:2c:
                    1a:8c:cd:7a:f4:54:5c:ac:44:aa:b0:a9:c8:e4:e9:
                    9b:e2:70:c3:3c:20:c0:9c:1a:23:99:86:ce:81:85:
                    a8:82:9c:57:ca:d8:05:90:42:bc:e9:1f:ed:83:c4:
                    7e:59:bd
                Exponent: 65537 (0x10001)
        X509v3 extensions:
            X509v3 Subject Key Identifier: 
                D3:FA:92:F0:66:F6:61:C9:67:6C:5A:A3:F5:79:AE:DF:E2:FA:9B:30
            X509v3 Authority Key Identifier: 
                keyid:5A:48:4D:08:A7:36:08:AE:20:C5:CE:A1:8E:50:E2:1D:95:26:91:64

            X509v3 Basic Constraints: 
                CA:FALSE
            X509v3 Key Usage: 
                Digital Signature, Key Encipherment
    Signature Algorithm: sha256WithRSAEncryption
         69:32:dd:d2:f2:cc:ae:23:15:82:e7:0d:e2:e1:56:32:c3:32:
         b0:bd:1c:09:19:0a:72:cb:3b:b1:34:5a:39:e1:e4:8a:9b:33:
         2c:d4:08:7e:6c:6d:9d:05:6f:5f:6a:a0:87:55:e5:e7:95:51:
         5e:4d:bd:71:2f:c3:94:39:ad:5e:16:c3:7b:33:fe:13:ef:ea:
         3b:1d:0b:6c:9f:4d:01:b4:da:5e:ca:e9:d4:57:2b:48:36:8c:
         a6:1b:21:ff:4a:1f:24:49:cb:05:48:4d:03:4a:66:f9:cd:89:
         d5:4e:00:62:83:f5:87:d2:be:c3:39:ae:55:ae:63:aa:97:0d:
         d2:d0:da:5d:0c:83:a9:21:b8:d7:75:90:97:db:b3:fa:ac:16:
         e7:2d:45:64:0e:25:a4:86:a5:6d:1d:cc:e3:f7:b3:f4:9f:28:
         02:74:dd:fb:3e:e1:11:b4:4e:af:62:68:29:ca:42:42:67:69:
         4a:2e:60:8e:34:d4:76:40:0a:68:29:b8:39:b4:30:f1:ec:24:
         db:7a:61:de:e3:8c:33:38:6c:14:3e:c1:c6:46:de:12:d0:1c:
         e3:c6:0b:18:5b:9d:d3:bd:8f:77:52:f6:e3:24:fa:81:57:c3:
         86:cf:c7:a1:f7:fd:e7:33:bc:ea:57:15:12:5c:dc:ca:38:53:
         cc:ba:30:fd:3d:d9:b8:4a:36:00:ae:86:0a:3a:3e:a1:94:82:
         f9:fd:b4:4e:98:7d:82:3d:6e:70:8e:13:6e:88:5b:a6:c7:03:
         f6:25:44:9e:a4:c6:11:20:64:ed:15:a6:9c:5f:eb:98:7a:07:
         fd:cb:2c:af:0b:30:60:0d:ca:4e:40:06:3a:c9:54:16:20:68:
         08:8a:13:f9:84:7c:88:68:00:cd:ec:3a:4c:ae:29:04:08:f2:
         61:2c:1e:97:55:7d:4a:6b:9c:0c:03:a4:49:29:5e:88:51:95:
         70:f1:06:44:bc:73:8f:b5:60:1b:a2:ba:6d:f0:30:78:dd:2f:
         ae:ae:6e:e2:34:e6:1e:69:b1:a5:28:45:2e:f7:48:4c:72:20:
         db:d4:61:2d:00:c7:a4:d8:61:ee:1c:1b:cd:38:fb:25:38:26:
         4d:07:6d:2b:a7:05:4b:4b:94:69:ec:a1:06:7a:6d:17:e8:8a:
         3b:d1:3d:88:20:48:e8:20:b8:b6:c4:0e:86:8a:7e:09:f4:96:
         00:af:1a:e3:f9:77:20:11:e4:c4:3b:11:60:88:53:94:bf:de:
         66:e4:a3:3d:ba:30:52:11:59:40:fc:6e:f6:db:96:27:cd:e4:
         74:cb:fc:69:28:d5:28:6d:f7:f2:8e:86:19:8b:24:b3:bc:de:
         7c:b6:9e:95:5e:bb:20:ee
-----BEGIN CERTIFICATE-----
MIIFvTCCA6WgAwIBAgIBBDANBgkqhkiG9w0BAQsFADCBiTELMAkGA1UEBhMCSU4x
DjAMBgNVBAgMBURlbGhpMQ4wDAYDVQQHDAVEZWxoaTEOMAwGA1UECgwFSUlJVEQx
CzAJBgNVBAsMAk5TMRIwEAYDVQQDDAlHdXJzaW1yYW4xKTAnBgkqhkiG9w0BCQEW
Gmd1cnNpbXJhbjE0MDQxQGlpaXRkLmFjLmluMB4XDTE2MTEyNzE2MzUyNFoXDTE5
MDgyNDE2MzUyNFowXjELMAkGA1UEBhMCaW4xDDAKBgNVBAgMA2RlbDEMMAoGA1UE
BwwDZGVsMSEwHwYDVQQKDBhJbnRlcm5ldCBXaWRnaXRzIFB0eSBMdGQxEDAOBgNV
BAMMB2NoYXJsaWUwggIiMA0GCSqGSIb3DQEBAQUAA4ICDwAwggIKAoICAQC9zmZ8
oHSZIlQLg6+75+kudzL58ED06GBnEMZ+4oIaPPDF4td2N9mno1Cha/f7kby0iIcP
sDgVhB0Mni8pgltcfAzutkN4C4kjAVorzNC22TpTZk9sAkZS2xHnF9xcN5eBC79F
2bzn9Q/NdNWYgRO1hO5CMnIoMXETKCplZTam6k68NEW+i/9mOBylgVXs8VLbyG2R
q4rDbE9reEeOscM615lcetTcfU5qexfwFzmpgLygJAZ6FbBB622Oh0ZC7YpMaQlc
fTyDBGq+f1bmb6LNM/XeTcwY4mn0FiKCaBRQ0MwLBEtTc8ZJqpgjelIjRyHlIDAX
EGdUbXfbolUxX7C3dUAYYINNaLTl7DUD2M9xZDkY32zU9IYgnI+mL4nj/if3YQmP
wRtGUtK7kegyivmBXb71G9px70itVJXYD2UpE6Dsj5pSC0/u699A/tNbZoPh0g2M
PQyHBWZOuqqIkcX4cLjmX31ftwdY6O9zKYIeY0cHQK/w9eJoNyazzN4a163Mj8Tr
iQBjK2jvY7tw5K6fpSYPLCWpF566EpOa/kSoc7i3H3B11qRn9Jiy2M1sdkqmYz7R
6o0RJaoytUfCEDWInCf6OeauVn/j+WhjCPTYLBqMzXr0VFysRKqwqcjk6ZvicMM8
IMCcGiOZhs6BhaiCnFfK2AWQQrzpH+2DxH5ZvQIDAQABo1owWDAdBgNVHQ4EFgQU
0/qS8Gb2YclnbFqj9Xmu3+L6mzAwHwYDVR0jBBgwFoAUWkhNCKc2CK4gxc6hjlDi
HZUmkWQwCQYDVR0TBAIwADALBgNVHQ8EBAMCBaAwDQYJKoZIhvcNAQELBQADggIB
AGky3dLyzK4jFYLnDeLhVjLDMrC9HAkZCnLLO7E0Wjnh5IqbMyzUCH5sbZ0Fb19q
oIdV5eeVUV5NvXEvw5Q5rV4Ww3sz/hPv6jsdC2yfTQG02l7K6dRXK0g2jKYbIf9K
HyRJywVITQNKZvnNidVOAGKD9YfSvsM5rlWuY6qXDdLQ2l0Mg6khuNd1kJfbs/qs
FuctRWQOJaSGpW0dzOP3s/SfKAJ03fs+4RG0Tq9iaCnKQkJnaUouYI401HZACmgp
uDm0MPHsJNt6Yd7jjDM4bBQ+wcZG3hLQHOPGCxhbndO9j3dS9uMk+oFXw4bPx6H3
/eczvOpXFRJc3Mo4U8y6MP092bhKNgCuhgo6PqGUgvn9tE6YfYI9bnCOE26IW6bH
A/YlRJ6kxhEgZO0Vppxf65h6B/3LLK8LMGANyk5ABjrJVBYgaAiKE/mEfIhoAM3s
OkyuKQQI8mEsHpdVfUprnAwDpEkpXohRlXDxBkS8c4+1YBuium3wMHjdL66ubuI0
5h5psaUoRS73SExyINvUYS0Ax6TYYe4cG804+yU4Jk0HbSunBUtLlGnsoQZ6bRfo
ijvRPYggSOgguLbEDoaKfgn0lgCvGuP5dyAR5MQ7EWCIU5S/3mbkoz26MFIRWUD8
bvbblifN5HTL/Gko1Sht9/KOhhmLJLO83ny2npVeuyDu
-----END CERTIFICATE-----
