Certificate:
    Data:
        Version: 3 (0x2)
        Serial Number: 5 (0x5)
    Signature Algorithm: sha256WithRSAEncryption
        Issuer: C=IN, ST=Delhi, L=Delhi, O=IIITD, OU=NS, CN=Gursimran/emailAddress=gursimran14041@iiitd.ac.in
        Validity
            Not Before: Nov 30 03:27:00 2016 GMT
            Not After : Aug 27 03:27:00 2019 GMT
        Subject: C=in, ST=del, L=del, O=iiit, OU=ns, CN=alice
        Subject Public Key Info:
            Public Key Algorithm: rsaEncryption
                Public-Key: (4096 bit)
                Modulus:
                    00:b7:60:ff:ac:4a:88:51:ef:49:b6:3b:da:dc:a7:
                    0c:1a:08:bf:02:1d:e6:26:cc:ab:e5:3e:7e:2d:7f:
                    7e:2a:fc:dd:d1:f1:1a:13:4c:48:be:8f:f6:e4:8e:
                    11:db:06:59:5b:9b:51:8d:9e:e5:77:55:fb:0d:62:
                    f4:ca:59:c1:b4:a4:5e:ed:67:0d:df:a7:91:8f:dd:
                    d2:6f:43:bb:f1:aa:91:71:31:a8:60:9b:b6:eb:ae:
                    59:e5:be:0a:8e:49:02:6a:94:14:04:bb:99:1b:4c:
                    6e:22:f4:5a:ef:47:ec:a8:91:73:61:f4:71:b4:bc:
                    a2:c6:99:38:82:9c:9d:cb:7f:ec:8e:a8:f6:32:cc:
                    09:e7:6c:51:a5:3e:61:d5:9e:cf:f9:10:73:0d:60:
                    6f:7d:fa:83:0e:06:a9:68:2d:be:0e:56:a1:4f:d1:
                    ba:e7:d8:85:7d:cb:d7:b9:6d:45:5f:7d:d7:12:19:
                    00:79:24:15:68:2e:33:92:9a:26:90:b6:26:f6:06:
                    1b:88:6f:d1:e1:4c:07:d4:59:05:25:85:52:20:16:
                    9e:87:31:5a:70:f3:a9:a5:ee:26:cf:36:e8:e4:db:
                    fc:b7:8a:bf:08:5b:8a:7c:04:74:9d:df:2b:10:00:
                    04:21:fc:0a:38:4a:29:c6:5d:8d:df:02:fc:15:30:
                    59:bd:48:fc:88:69:8a:8c:e9:4b:2e:c9:11:f8:c8:
                    a9:fe:dc:fe:44:08:bc:e4:e5:b4:64:08:14:f1:79:
                    59:5b:2e:80:39:83:6e:7e:e6:46:e2:43:71:d1:fb:
                    9c:02:1c:65:b4:20:3c:92:e5:b2:91:de:4d:07:50:
                    1a:0c:d1:e2:a6:45:0f:0a:79:06:2f:b0:3a:49:89:
                    68:cb:2d:ff:2a:5c:b9:97:03:c9:78:52:c9:4e:01:
                    90:20:13:57:69:a4:a9:8e:43:84:30:57:eb:e7:2b:
                    79:05:5d:26:ea:d7:0b:2a:74:38:16:a1:74:ea:3a:
                    ad:5b:c4:1d:0f:a8:eb:58:f4:8f:04:67:f7:20:c1:
                    2a:d6:f2:d2:81:9f:f6:c5:1f:a5:da:5b:25:20:a0:
                    07:99:5b:9c:76:74:4c:71:42:50:8a:61:77:64:e5:
                    79:a7:4b:1a:4c:eb:ce:51:de:f0:e9:65:d4:67:e1:
                    53:6a:f5:d9:c2:21:82:47:e0:b8:87:38:41:3a:88:
                    6c:59:e6:02:72:5e:24:83:16:a2:15:36:cb:91:93:
                    53:81:32:bf:d3:e2:cd:79:af:8e:a5:49:5d:7c:c9:
                    71:24:4f:83:54:d6:cc:59:54:c2:8b:a7:45:ed:41:
                    9b:38:e4:bc:9e:99:1a:64:c3:5f:9a:7b:93:a4:1e:
                    88:13:6f
                Exponent: 65537 (0x10001)
        X509v3 extensions:
            X509v3 Subject Key Identifier: 
                4C:7C:96:CF:01:D0:E3:0A:84:88:DA:13:74:86:79:DB:61:12:DF:E4
            X509v3 Authority Key Identifier: 
                keyid:5A:48:4D:08:A7:36:08:AE:20:C5:CE:A1:8E:50:E2:1D:95:26:91:64

            X509v3 Basic Constraints: 
                CA:FALSE
            X509v3 Key Usage: 
                Digital Signature, Key Encipherment
    Signature Algorithm: sha256WithRSAEncryption
         bb:cc:b5:8b:72:32:b3:49:79:84:1e:9a:ea:38:31:12:dc:f3:
         58:44:fa:cc:33:6a:a5:ec:41:5f:58:fe:ff:d8:7b:9e:dc:78:
         4d:2e:5a:54:94:af:b0:18:be:9b:af:3d:67:7c:d2:02:3f:ac:
         de:b3:2a:c6:b1:2a:4b:23:25:69:70:32:ac:55:4f:1e:20:68:
         92:f4:c4:bd:7b:b9:53:e1:46:11:d6:07:e8:bc:dd:e4:43:1d:
         b5:ac:16:e5:b5:39:9c:b9:4c:60:75:32:80:dc:88:21:60:09:
         dc:d8:59:04:d5:29:26:d9:36:9b:5f:76:32:c9:6c:3c:4d:1f:
         16:7b:83:84:44:58:fb:af:bf:d3:ce:3e:77:ae:ae:e6:50:e2:
         38:98:56:35:af:72:71:e1:b7:0f:a4:bb:11:45:03:64:b4:d4:
         1a:23:3b:aa:0c:06:88:75:4d:0f:7d:02:27:ba:7f:3d:7c:29:
         df:6e:77:e8:53:73:06:03:4b:a0:9a:ab:55:d1:89:6f:bf:08:
         c0:1e:d3:bc:4c:df:c0:6c:32:7d:85:e5:16:86:19:b5:20:5e:
         86:9f:17:45:7e:43:59:e3:32:08:35:ba:37:7e:dd:cf:99:7c:
         8f:48:32:74:4d:07:42:14:61:32:4d:00:3b:68:63:d6:12:3e:
         08:6d:fa:7b:73:98:b0:a1:5f:b5:e2:51:d3:1e:ac:d9:3f:4e:
         75:7c:d7:1c:13:3a:16:45:d2:07:4c:5f:5a:a5:5e:c6:94:3f:
         a3:ce:22:1b:cf:fa:03:d4:1f:c9:28:0a:9b:9d:6e:80:0a:62:
         5a:20:ef:c1:8d:f7:8b:fd:75:5f:47:d0:4d:20:98:ea:0b:32:
         9a:bb:21:1f:24:7e:ba:41:02:16:85:67:e0:46:a2:3f:ab:fe:
         a7:54:c5:8e:e7:09:f6:2e:f1:1e:59:26:69:10:e2:1c:f8:9a:
         5d:65:ee:ee:e7:82:a1:55:f9:66:34:15:0c:f8:37:65:07:4c:
         f2:21:b8:00:37:be:17:c7:fb:36:5e:05:cf:6c:f3:8e:12:3d:
         82:d5:72:e4:48:e5:e5:ce:3a:19:64:30:cf:8f:59:95:9b:01:
         c0:58:14:87:13:78:34:77:e2:f0:6a:90:66:29:51:a9:24:9f:
         42:d0:c5:5c:30:d4:19:5f:8c:f1:62:38:41:35:15:e1:f5:8d:
         46:c1:f6:89:9d:cd:87:be:18:93:ab:0b:09:0b:7f:d0:21:73:
         ca:b6:de:7b:13:7e:1e:20:89:76:e4:21:66:1e:ab:8e:b8:b5:
         94:51:ef:72:85:2b:f9:a3:ad:5b:3e:62:72:cf:7a:bb:1b:6f:
         87:0d:99:00:3b:b7:ae:ab
-----BEGIN CERTIFICATE-----
MIIFtDCCA5ygAwIBAgIBBTANBgkqhkiG9w0BAQsFADCBiTELMAkGA1UEBhMCSU4x
DjAMBgNVBAgMBURlbGhpMQ4wDAYDVQQHDAVEZWxoaTEOMAwGA1UECgwFSUlJVEQx
CzAJBgNVBAsMAk5TMRIwEAYDVQQDDAlHdXJzaW1yYW4xKTAnBgkqhkiG9w0BCQEW
Gmd1cnNpbXJhbjE0MDQxQGlpaXRkLmFjLmluMB4XDTE2MTEzMDAzMjcwMFoXDTE5
MDgyNzAzMjcwMFowVTELMAkGA1UEBhMCaW4xDDAKBgNVBAgMA2RlbDEMMAoGA1UE
BwwDZGVsMQ0wCwYDVQQKDARpaWl0MQswCQYDVQQLDAJuczEOMAwGA1UEAwwFYWxp
Y2UwggIiMA0GCSqGSIb3DQEBAQUAA4ICDwAwggIKAoICAQC3YP+sSohR70m2O9rc
pwwaCL8CHeYmzKvlPn4tf34q/N3R8RoTTEi+j/bkjhHbBllbm1GNnuV3VfsNYvTK
WcG0pF7tZw3fp5GP3dJvQ7vxqpFxMahgm7brrlnlvgqOSQJqlBQEu5kbTG4i9Frv
R+yokXNh9HG0vKLGmTiCnJ3Lf+yOqPYyzAnnbFGlPmHVns/5EHMNYG99+oMOBqlo
Lb4OVqFP0brn2IV9y9e5bUVffdcSGQB5JBVoLjOSmiaQtib2BhuIb9HhTAfUWQUl
hVIgFp6HMVpw86ml7ibPNujk2/y3ir8IW4p8BHSd3ysQAAQh/Ao4SinGXY3fAvwV
MFm9SPyIaYqM6UsuyRH4yKn+3P5ECLzk5bRkCBTxeVlbLoA5g25+5kbiQ3HR+5wC
HGW0IDyS5bKR3k0HUBoM0eKmRQ8KeQYvsDpJiWjLLf8qXLmXA8l4UslOAZAgE1dp
pKmOQ4QwV+vnK3kFXSbq1wsqdDgWoXTqOq1bxB0PqOtY9I8EZ/cgwSrW8tKBn/bF
H6XaWyUgoAeZW5x2dExxQlCKYXdk5XmnSxpM685R3vDpZdRn4VNq9dnCIYJH4LiH
OEE6iGxZ5gJyXiSDFqIVNsuRk1OBMr/T4s15r46lSV18yXEkT4NU1sxZVMKLp0Xt
QZs45LyemRpkw1+ae5OkHogTbwIDAQABo1owWDAdBgNVHQ4EFgQUTHyWzwHQ4wqE
iNoTdIZ522ES3+QwHwYDVR0jBBgwFoAUWkhNCKc2CK4gxc6hjlDiHZUmkWQwCQYD
VR0TBAIwADALBgNVHQ8EBAMCBaAwDQYJKoZIhvcNAQELBQADggIBALvMtYtyMrNJ
eYQemuo4MRLc81hE+swzaqXsQV9Y/v/Ye57ceE0uWlSUr7AYvpuvPWd80gI/rN6z
KsaxKksjJWlwMqxVTx4gaJL0xL17uVPhRhHWB+i83eRDHbWsFuW1OZy5TGB1MoDc
iCFgCdzYWQTVKSbZNptfdjLJbDxNHxZ7g4REWPuvv9POPneuruZQ4jiYVjWvcnHh
tw+kuxFFA2S01BojO6oMBoh1TQ99Aie6fz18Kd9ud+hTcwYDS6Caq1XRiW+/CMAe
07xM38BsMn2F5RaGGbUgXoafF0V+Q1njMgg1ujd+3c+ZfI9IMnRNB0IUYTJNADto
Y9YSPght+ntzmLChX7XiUdMerNk/TnV81xwTOhZF0gdMX1qlXsaUP6POIhvP+gPU
H8koCpudboAKYlog78GN94v9dV9H0E0gmOoLMpq7IR8kfrpBAhaFZ+BGoj+r/qdU
xY7nCfYu8R5ZJmkQ4hz4ml1l7u7ngqFV+WY0FQz4N2UHTPIhuAA3vhfH+zZeBc9s
844SPYLVcuRI5eXOOhlkMM+PWZWbAcBYFIcTeDR34vBqkGYpUakkn0LQxVww1Blf
jPFiOEE1FeH1jUbB9omdzYe+GJOrCwkLf9Ahc8q23nsTfh4giXbkIWYeq464tZRR
73KFK/mjrVs+YnLPersbb4cNmQA7t66r
-----END CERTIFICATE-----
