Certificate:
    Data:
        Version: 3 (0x2)
        Serial Number: 6 (0x6)
    Signature Algorithm: sha256WithRSAEncryption
        Issuer: C=IN, ST=Delhi, L=Delhi, O=IIITD, OU=NS, CN=Gursimran/emailAddress=gursimran14041@iiitd.ac.in
        Validity
            Not Before: Nov 30 03:27:24 2016 GMT
            Not After : Aug 27 03:27:24 2019 GMT
        Subject: C=in, ST=del, L=del, O=del, OU=iiit, CN=bob
        Subject Public Key Info:
            Public Key Algorithm: rsaEncryption
                Public-Key: (4096 bit)
                Modulus:
                    00:bc:10:b2:66:7d:27:3f:1d:7a:af:72:01:16:b6:
                    5a:57:cb:3c:6c:21:24:70:80:92:1c:1f:96:81:e2:
                    71:cb:40:dc:47:18:fb:98:6d:db:ff:f7:38:e1:3f:
                    67:59:5f:1e:1b:dc:51:d3:28:07:a2:f5:00:52:6c:
                    31:f2:47:4d:22:eb:00:e0:97:0f:66:cf:c2:39:43:
                    cd:40:de:7c:8f:f8:67:e0:80:f4:0e:7c:79:ad:37:
                    fc:ea:fc:52:43:3a:a9:eb:ec:aa:e9:bd:6c:38:52:
                    55:a2:b2:87:49:13:d8:4f:3e:da:82:19:cb:71:f1:
                    d3:94:9f:15:92:e0:40:e6:0d:e1:46:df:bb:9c:2c:
                    49:d2:25:92:3a:c1:9d:92:7e:9c:36:fa:fa:66:0a:
                    75:a0:d1:54:21:af:f3:23:81:8b:c3:b9:c0:a0:d4:
                    ff:8e:b6:82:11:4b:50:b2:1f:01:d3:ab:95:4c:48:
                    23:66:cc:d4:13:d3:f9:8e:95:c2:b8:7a:4f:dd:95:
                    a5:5a:3a:de:2e:46:0f:42:3f:43:b1:a4:4c:29:e3:
                    09:9a:e2:ca:98:6a:b3:b0:23:34:66:fa:7a:d2:1d:
                    ea:a3:5b:5d:cc:2b:82:78:ca:64:31:91:cc:20:89:
                    4b:88:e4:ea:e9:fe:54:79:1e:86:8d:3d:a3:05:7e:
                    07:32:d2:10:27:f4:9d:75:4c:ae:7f:b1:eb:2b:3a:
                    aa:70:dd:0b:8f:a9:ed:ce:fb:9d:c5:f0:25:d7:0d:
                    64:76:d3:4f:69:b0:86:3c:8b:4f:0b:19:f6:44:e8:
                    47:2d:2b:c8:ef:ea:e7:c3:c7:aa:0f:59:4d:3a:87:
                    66:d5:b0:8d:63:22:65:9a:2d:5f:99:d7:e2:ea:02:
                    ea:89:28:5a:90:6b:76:7b:a9:ad:b6:99:e9:1b:67:
                    c1:11:8a:f3:f0:bd:7b:8d:0e:eb:d6:a7:41:43:19:
                    9c:49:01:18:76:24:3b:69:2b:0e:49:17:01:94:c2:
                    ff:8c:3a:30:44:79:f7:7e:60:d3:d9:70:fb:ea:47:
                    e7:1b:83:60:f9:32:33:bb:71:95:96:26:7a:b1:aa:
                    9c:1a:ef:1b:26:68:bc:c8:46:9e:26:fd:d6:0c:1c:
                    37:11:16:f4:2d:16:d8:1b:2d:fb:ab:28:c9:4e:57:
                    07:5f:5f:da:33:d4:e5:7f:2d:e9:e4:a7:5b:74:5d:
                    b0:6f:b2:62:59:2c:1f:99:4c:a7:31:91:1d:d9:54:
                    88:47:04:65:0c:94:39:f0:45:19:78:c5:a1:32:d1:
                    67:e7:ea:f7:8b:4f:e8:30:83:08:a4:5a:01:51:56:
                    69:f5:ed:9d:cf:b4:08:68:8d:21:f4:c8:fe:c9:94:
                    21:16:47
                Exponent: 65537 (0x10001)
        X509v3 extensions:
            X509v3 Subject Key Identifier: 
                3C:8F:CB:6C:EF:21:49:0A:6F:D8:AF:69:96:E0:F9:89:9E:C3:01:5F
            X509v3 Authority Key Identifier: 
                keyid:5A:48:4D:08:A7:36:08:AE:20:C5:CE:A1:8E:50:E2:1D:95:26:91:64

            X509v3 Basic Constraints: 
                CA:FALSE
            X509v3 Key Usage: 
                Digital Signature, Key Encipherment
    Signature Algorithm: sha256WithRSAEncryption
         60:99:c4:3d:75:17:13:90:c9:5f:25:dc:70:51:31:84:29:96:
         8d:66:40:58:3a:3f:52:96:84:4f:f0:4e:fc:17:a8:c3:a5:68:
         16:c5:25:60:9b:d0:23:ae:2f:71:39:ea:76:10:88:41:88:15:
         ba:fc:33:59:60:e9:b1:a4:6a:20:70:00:29:74:1d:97:dd:13:
         21:a9:18:22:48:96:1d:19:7e:63:9d:c2:39:17:55:db:75:4c:
         d6:7e:5b:82:12:5f:5a:43:6f:f1:0f:57:5a:83:41:ac:6c:24:
         56:06:45:94:89:48:62:36:56:aa:9e:bb:13:ab:05:ac:a8:2d:
         59:52:84:35:a7:92:e6:4e:8c:fe:5d:a6:cb:d1:df:40:46:c4:
         ab:4c:29:51:85:3b:fe:a3:ab:6c:87:f8:36:fc:bb:1c:3c:e6:
         7d:7c:21:72:53:14:d5:c2:78:d9:2b:7e:ef:26:e5:83:59:26:
         a1:b7:7c:83:a1:6e:d5:4e:2d:7c:89:b3:37:19:f4:72:55:34:
         a5:7f:05:a8:2c:3d:1e:41:fd:79:61:e9:9f:3e:ea:93:f1:72:
         57:64:5c:63:09:13:20:11:37:b1:a7:6e:0b:e6:11:1a:48:84:
         e3:81:8b:26:a5:d8:67:e8:9b:3d:38:0a:f3:a9:d5:0b:c2:92:
         d6:73:5b:2e:a5:d5:f8:e4:f0:5e:c6:fe:24:65:00:80:d5:f5:
         80:91:38:d4:d1:d6:81:41:39:d0:1e:ae:07:ab:1e:cb:3c:13:
         18:86:04:4c:15:29:e5:67:2f:95:8a:69:e8:9d:21:eb:9c:44:
         da:39:c8:83:e4:6b:f2:be:57:6b:8b:51:53:bc:5e:12:64:3b:
         8f:bd:02:f4:94:61:31:89:9b:45:0c:db:9c:96:a6:a3:50:6e:
         a9:6a:2a:e5:4b:22:a0:61:6b:79:c1:cf:0f:e9:fb:4e:67:e3:
         c3:2c:a4:d7:07:fd:46:37:a4:92:30:ad:40:a2:8c:a3:9c:3d:
         d2:1a:cd:34:19:9a:96:64:a6:8f:d5:3e:65:e2:c9:26:84:21:
         07:e4:f4:86:c0:25:51:45:20:5a:56:4f:11:ed:bc:5a:82:af:
         69:97:d6:45:20:41:08:50:7c:d4:1b:0b:24:74:48:f7:c0:76:
         06:c5:09:31:ca:af:3a:0d:7f:12:37:70:56:5b:69:48:2d:ba:
         fb:07:e9:a2:e2:b2:f0:e4:1c:1e:8a:19:d6:6a:71:7a:b3:c2:
         1a:36:c3:65:f7:8e:e0:59:48:f5:5b:2f:dd:26:5f:a0:ce:4d:
         9a:f4:f6:ca:05:be:14:70:0b:6a:81:a6:ee:13:08:06:3e:e3:
         7e:0e:6d:f1:6c:1a:a1:0f
-----BEGIN CERTIFICATE-----
MIIFszCCA5ugAwIBAgIBBjANBgkqhkiG9w0BAQsFADCBiTELMAkGA1UEBhMCSU4x
DjAMBgNVBAgMBURlbGhpMQ4wDAYDVQQHDAVEZWxoaTEOMAwGA1UECgwFSUlJVEQx
CzAJBgNVBAsMAk5TMRIwEAYDVQQDDAlHdXJzaW1yYW4xKTAnBgkqhkiG9w0BCQEW
Gmd1cnNpbXJhbjE0MDQxQGlpaXRkLmFjLmluMB4XDTE2MTEzMDAzMjcyNFoXDTE5
MDgyNzAzMjcyNFowVDELMAkGA1UEBhMCaW4xDDAKBgNVBAgMA2RlbDEMMAoGA1UE
BwwDZGVsMQwwCgYDVQQKDANkZWwxDTALBgNVBAsMBGlpaXQxDDAKBgNVBAMMA2Jv
YjCCAiIwDQYJKoZIhvcNAQEBBQADggIPADCCAgoCggIBALwQsmZ9Jz8deq9yARa2
WlfLPGwhJHCAkhwfloHicctA3EcY+5ht2//3OOE/Z1lfHhvcUdMoB6L1AFJsMfJH
TSLrAOCXD2bPwjlDzUDefI/4Z+CA9A58ea03/Or8UkM6qevsqum9bDhSVaKyh0kT
2E8+2oIZy3Hx05SfFZLgQOYN4Ubfu5wsSdIlkjrBnZJ+nDb6+mYKdaDRVCGv8yOB
i8O5wKDU/462ghFLULIfAdOrlUxII2bM1BPT+Y6Vwrh6T92VpVo63i5GD0I/Q7Gk
TCnjCZriyphqs7AjNGb6etId6qNbXcwrgnjKZDGRzCCJS4jk6un+VHkeho09owV+
BzLSECf0nXVMrn+x6ys6qnDdC4+p7c77ncXwJdcNZHbTT2mwhjyLTwsZ9kToRy0r
yO/q58PHqg9ZTTqHZtWwjWMiZZotX5nX4uoC6okoWpBrdnuprbaZ6RtnwRGK8/C9
e40O69anQUMZnEkBGHYkO2krDkkXAZTC/4w6MER5935g09lw++pH5xuDYPkyM7tx
lZYmerGqnBrvGyZovMhGnib91gwcNxEW9C0W2Bst+6soyU5XB19f2jPU5X8t6eSn
W3RdsG+yYlksH5lMpzGRHdlUiEcEZQyUOfBFGXjFoTLRZ+fq94tP6DCDCKRaAVFW
afXtnc+0CGiNIfTI/smUIRZHAgMBAAGjWjBYMB0GA1UdDgQWBBQ8j8ts7yFJCm/Y
r2mW4PmJnsMBXzAfBgNVHSMEGDAWgBRaSE0IpzYIriDFzqGOUOIdlSaRZDAJBgNV
HRMEAjAAMAsGA1UdDwQEAwIFoDANBgkqhkiG9w0BAQsFAAOCAgEAYJnEPXUXE5DJ
XyXccFExhCmWjWZAWDo/UpaET/BO/Beow6VoFsUlYJvQI64vcTnqdhCIQYgVuvwz
WWDpsaRqIHAAKXQdl90TIakYIkiWHRl+Y53CORdV23VM1n5bghJfWkNv8Q9XWoNB
rGwkVgZFlIlIYjZWqp67E6sFrKgtWVKENaeS5k6M/l2my9HfQEbEq0wpUYU7/qOr
bIf4Nvy7HDzmfXwhclMU1cJ42St+7yblg1kmobd8g6Fu1U4tfImzNxn0clU0pX8F
qCw9HkH9eWHpnz7qk/FyV2RcYwkTIBE3saduC+YRGkiE44GLJqXYZ+ibPTgK86nV
C8KS1nNbLqXV+OTwXsb+JGUAgNX1gJE41NHWgUE50B6uB6seyzwTGIYETBUp5Wcv
lYpp6J0h65xE2jnIg+Rr8r5Xa4tRU7xeEmQ7j70C9JRhMYmbRQzbnJamo1BuqWoq
5UsioGFrecHPD+n7Tmfjwyyk1wf9RjekkjCtQKKMo5w90hrNNBmalmSmj9U+ZeLJ
JoQhB+T0hsAlUUUgWlZPEe28WoKvaZfWRSBBCFB81BsLJHRI98B2BsUJMcqvOg1/
EjdwVltpSC26+wfpouKy8OQcHooZ1mpxerPCGjbDZfeO4FlI9Vsv3SZfoM5NmvT2
ygW+FHALaoGm7hMIBj7jfg5t8WwaoQ8=
-----END CERTIFICATE-----
