Certificate:
    Data:
        Version: 3 (0x2)
        Serial Number: 7 (0x7)
    Signature Algorithm: sha256WithRSAEncryption
        Issuer: C=IN, ST=Delhi, L=Delhi, O=IIITD, OU=NS, CN=Gursimran/emailAddress=gursimran14041@iiitd.ac.in
        Validity
            Not Before: Nov 30 03:55:13 2016 GMT
            Not After : Aug 27 03:55:13 2019 GMT
        Subject: C=in, ST=del, L=del, O=iiit, OU=ns, CN=alice
        Subject Public Key Info:
            Public Key Algorithm: rsaEncryption
                Public-Key: (4096 bit)
                Modulus:
                    00:b5:f7:27:25:22:f1:86:f4:5f:10:ee:cd:1d:e5:
                    c1:83:53:43:11:62:9c:ad:13:1b:06:e1:e4:3a:93:
                    f1:5e:0e:cd:61:2f:a3:ff:ab:2e:6a:2c:39:cc:50:
                    36:eb:33:07:5c:b5:5b:7c:a5:74:02:19:de:bc:0d:
                    97:a0:31:6d:3f:2b:09:85:8e:f9:e2:08:1e:fb:50:
                    5d:cb:e8:1e:3d:bb:d9:a0:a0:14:bf:a3:78:49:51:
                    69:51:d4:52:b2:93:a7:57:ad:7b:26:8c:64:ba:62:
                    8e:ea:23:92:ce:0d:29:6e:39:47:c0:04:85:d3:00:
                    61:17:c0:d1:15:e9:ec:9c:8c:2b:ee:52:33:f4:fe:
                    da:5e:9c:78:a3:81:11:97:28:25:be:46:dc:be:3c:
                    19:7d:f2:f9:fd:79:3c:66:dd:8b:10:c2:50:6b:da:
                    ca:20:84:1e:39:f9:5a:63:64:0f:11:f6:68:ea:96:
                    64:ee:31:52:e5:e0:21:eb:3a:0b:e0:55:49:09:2b:
                    f5:61:8d:41:b8:dc:bb:52:1c:13:bd:09:09:62:90:
                    a3:62:bb:d6:8c:86:20:56:fe:42:43:40:a9:22:20:
                    45:d2:f2:51:6d:1c:29:75:6b:46:2d:a6:53:eb:d8:
                    6a:45:4f:6e:1a:60:9e:7d:3d:39:4c:66:90:da:28:
                    f7:81:55:2f:10:10:41:6a:9e:7a:6d:65:47:31:0f:
                    d4:3d:d6:a3:53:fa:1a:1c:5d:b4:8e:85:6a:70:7a:
                    d5:f4:8f:9a:63:13:b2:e3:6b:31:80:f1:19:32:48:
                    38:16:67:5a:77:d5:b4:96:fa:82:ef:fa:0e:cc:17:
                    27:95:94:03:fb:ae:5e:e8:db:db:00:a7:f1:7c:6b:
                    0a:36:f1:d1:48:e2:f6:0b:9d:5e:bd:72:48:93:8d:
                    c5:d9:a4:a7:d0:61:05:c6:4e:7d:a7:e6:64:f9:85:
                    cc:f2:b9:c5:e7:dd:e6:42:c9:25:6d:a8:10:5c:2a:
                    23:e4:35:1c:02:6b:ac:10:84:c1:06:be:75:a7:da:
                    c5:2a:72:08:ca:5d:fd:d1:85:4a:81:1a:86:a1:08:
                    3f:3f:28:75:7a:9f:e3:e9:54:49:b4:e4:c0:83:cf:
                    70:c5:da:ff:b5:90:b9:66:56:68:22:69:29:e2:48:
                    99:79:80:9d:71:59:94:10:5f:2f:31:13:00:6e:dd:
                    63:a6:17:0d:ea:6d:51:7b:90:e3:03:ad:2d:f8:d1:
                    24:90:96:89:75:3f:02:c6:fe:5f:4f:36:cc:c9:99:
                    ca:10:33:19:44:06:9e:72:55:69:63:8d:85:3b:00:
                    a0:86:aa:70:1f:65:2b:b8:f2:a1:7a:37:6c:79:42:
                    0e:6f:6b
                Exponent: 65537 (0x10001)
        X509v3 extensions:
            X509v3 Subject Key Identifier: 
                27:00:F9:34:4E:8D:73:26:98:19:19:72:6A:E2:7E:4E:75:0A:E6:72
            X509v3 Authority Key Identifier: 
                keyid:5A:48:4D:08:A7:36:08:AE:20:C5:CE:A1:8E:50:E2:1D:95:26:91:64

            X509v3 Basic Constraints: 
                CA:FALSE
            X509v3 Key Usage: 
                Digital Signature, Key Encipherment
    Signature Algorithm: sha256WithRSAEncryption
         b9:a0:ad:65:85:d5:33:9b:90:f6:7e:55:58:e2:47:51:1a:ef:
         f1:60:60:d0:05:7b:c5:18:26:b9:74:90:9e:e1:93:39:92:1a:
         a4:50:6f:66:e7:46:8a:37:ba:1b:f3:62:a8:6c:e4:02:68:42:
         68:b3:35:1b:cc:2a:0f:2b:1f:cd:95:93:19:5e:36:90:fa:7b:
         e1:a6:61:f0:1f:f9:55:cf:19:df:15:8d:fa:7c:3a:d0:ad:29:
         2a:e4:5f:40:14:75:1a:e8:22:7a:80:c1:d7:e9:a3:a1:d5:74:
         c8:01:bc:d1:62:15:78:6e:1e:a1:b8:1f:58:f1:17:66:8d:31:
         e0:b6:94:22:7d:a9:13:59:de:1e:f7:7c:a0:18:c4:df:c8:68:
         35:83:ae:5e:68:c3:50:8f:98:33:6a:98:e4:c4:ae:57:82:e6:
         ea:c3:e4:3c:7e:74:22:1a:88:8f:0a:14:99:d0:ff:9e:dc:9a:
         a1:6b:2d:12:7c:be:bf:12:03:bb:65:4c:7d:d3:40:84:76:eb:
         d3:55:5b:f2:e6:e4:44:78:33:63:31:dc:ad:75:98:79:5e:70:
         e4:67:af:36:c7:c3:75:d1:fa:e6:c6:8e:31:27:6e:0b:60:82:
         7d:84:aa:ec:64:af:fd:6d:e8:ad:59:62:3a:94:91:ce:00:25:
         e0:c3:ce:92:38:17:2a:11:cc:4d:20:98:22:b0:d8:8c:d6:9c:
         f3:6a:2a:5d:d4:a7:eb:f6:ae:57:f4:7c:16:3c:4e:5c:f1:b8:
         dd:20:cc:18:cb:cb:90:ba:a0:26:dc:79:fe:bc:1d:fe:c5:5f:
         ed:35:49:e2:0b:0e:84:5b:ca:26:a7:6f:b0:6e:37:ca:c9:7c:
         3d:f1:92:d6:6f:ca:c1:0e:b7:eb:b2:07:3c:55:ea:f1:dd:51:
         c4:7a:5d:a0:10:5d:04:20:a5:5d:88:5f:ad:ce:ac:8e:09:10:
         6f:ce:99:d8:ae:3a:fb:a6:40:b0:df:9d:6d:bc:30:89:db:33:
         cf:b2:d4:79:f3:6f:f2:f2:7e:7a:7a:e5:43:10:e1:da:39:46:
         14:05:70:17:22:00:bd:c2:23:b1:62:63:c4:51:18:39:69:c9:
         ec:d4:70:a5:c1:ae:64:cf:d1:e1:d4:b5:7b:44:35:4c:5d:54:
         17:55:49:de:27:88:f5:9c:3b:b0:c2:d9:92:11:81:41:8b:6a:
         68:30:94:38:f7:11:37:0f:3f:d4:01:28:fa:52:0f:67:67:c5:
         d8:5a:3c:69:22:74:4b:d6:47:e3:fa:32:15:4c:0f:4f:56:78:
         8c:e7:c1:c9:be:19:4d:33:83:4e:08:c7:7d:62:93:fa:9e:eb:
         4c:d6:db:3f:6b:e1:bc:f2
-----BEGIN CERTIFICATE-----
MIIFtDCCA5ygAwIBAgIBBzANBgkqhkiG9w0BAQsFADCBiTELMAkGA1UEBhMCSU4x
DjAMBgNVBAgMBURlbGhpMQ4wDAYDVQQHDAVEZWxoaTEOMAwGA1UECgwFSUlJVEQx
CzAJBgNVBAsMAk5TMRIwEAYDVQQDDAlHdXJzaW1yYW4xKTAnBgkqhkiG9w0BCQEW
Gmd1cnNpbXJhbjE0MDQxQGlpaXRkLmFjLmluMB4XDTE2MTEzMDAzNTUxM1oXDTE5
MDgyNzAzNTUxM1owVTELMAkGA1UEBhMCaW4xDDAKBgNVBAgMA2RlbDEMMAoGA1UE
BwwDZGVsMQ0wCwYDVQQKDARpaWl0MQswCQYDVQQLDAJuczEOMAwGA1UEAwwFYWxp
Y2UwggIiMA0GCSqGSIb3DQEBAQUAA4ICDwAwggIKAoICAQC19yclIvGG9F8Q7s0d
5cGDU0MRYpytExsG4eQ6k/FeDs1hL6P/qy5qLDnMUDbrMwdctVt8pXQCGd68DZeg
MW0/KwmFjvniCB77UF3L6B49u9mgoBS/o3hJUWlR1FKyk6dXrXsmjGS6Yo7qI5LO
DSluOUfABIXTAGEXwNEV6eycjCvuUjP0/tpenHijgRGXKCW+Rty+PBl98vn9eTxm
3YsQwlBr2soghB45+VpjZA8R9mjqlmTuMVLl4CHrOgvgVUkJK/VhjUG43LtSHBO9
CQlikKNiu9aMhiBW/kJDQKkiIEXS8lFtHCl1a0YtplPr2GpFT24aYJ59PTlMZpDa
KPeBVS8QEEFqnnptZUcxD9Q91qNT+hocXbSOhWpwetX0j5pjE7LjazGA8RkySDgW
Z1p31bSW+oLv+g7MFyeVlAP7rl7o29sAp/F8awo28dFI4vYLnV69ckiTjcXZpKfQ
YQXGTn2n5mT5hczyucXn3eZCySVtqBBcKiPkNRwCa6wQhMEGvnWn2sUqcgjKXf3R
hUqBGoahCD8/KHV6n+PpVEm05MCDz3DF2v+1kLlmVmgiaSniSJl5gJ1xWZQQXy8x
EwBu3WOmFw3qbVF7kOMDrS340SSQlol1PwLG/l9PNszJmcoQMxlEBp5yVWljjYU7
AKCGqnAfZSu48qF6N2x5Qg5vawIDAQABo1owWDAdBgNVHQ4EFgQUJwD5NE6NcyaY
GRlyauJ+TnUK5nIwHwYDVR0jBBgwFoAUWkhNCKc2CK4gxc6hjlDiHZUmkWQwCQYD
VR0TBAIwADALBgNVHQ8EBAMCBaAwDQYJKoZIhvcNAQELBQADggIBALmgrWWF1TOb
kPZ+VVjiR1Ea7/FgYNAFe8UYJrl0kJ7hkzmSGqRQb2bnRoo3uhvzYqhs5AJoQmiz
NRvMKg8rH82VkxleNpD6e+GmYfAf+VXPGd8Vjfp8OtCtKSrkX0AUdRroInqAwdfp
o6HVdMgBvNFiFXhuHqG4H1jxF2aNMeC2lCJ9qRNZ3h73fKAYxN/IaDWDrl5ow1CP
mDNqmOTErleC5urD5Dx+dCIaiI8KFJnQ/57cmqFrLRJ8vr8SA7tlTH3TQIR269NV
W/Lm5ER4M2Mx3K11mHlecORnrzbHw3XR+ubGjjEnbgtggn2Equxkr/1t6K1ZYjqU
kc4AJeDDzpI4FyoRzE0gmCKw2IzWnPNqKl3Up+v2rlf0fBY8TlzxuN0gzBjLy5C6
oCbcef68Hf7FX+01SeILDoRbyianb7BuN8rJfD3xktZvysEOt+uyBzxV6vHdUcR6
XaAQXQQgpV2IX63OrI4JEG/OmdiuOvumQLDfnW28MInbM8+y1Hnzb/Lyfnp65UMQ
4do5RhQFcBciAL3CI7FiY8RRGDlpyezUcKXBrmTP0eHUtXtENUxdVBdVSd4niPWc
O7DC2ZIRgUGLamgwlDj3ETcPP9QBKPpSD2dnxdhaPGkidEvWR+P6MhVMD09WeIzn
wcm+GU0zg04Ix31ik/qe60zW2z9r4bzy
-----END CERTIFICATE-----
