Certificate:
    Data:
        Version: 3 (0x2)
        Serial Number: 8 (0x8)
    Signature Algorithm: sha256WithRSAEncryption
        Issuer: C=IN, ST=Delhi, L=Delhi, O=IIITD, OU=NS, CN=Gursimran/emailAddress=gursimran14041@iiitd.ac.in
        Validity
            Not Before: Nov 30 03:55:59 2016 GMT
            Not After : Aug 27 03:55:59 2019 GMT
        Subject: C=in, ST=del, L=del, O=iiit, OU=ns, CN=bob
        Subject Public Key Info:
            Public Key Algorithm: rsaEncryption
                Public-Key: (4096 bit)
                Modulus:
                    00:c1:20:92:5d:bd:db:43:aa:5c:25:98:24:b0:65:
                    de:21:ab:35:83:6f:a9:58:6f:ff:fc:16:45:24:91:
                    01:11:79:7c:93:9b:d6:fe:ce:cb:1f:c2:ff:fe:18:
                    10:6f:5d:7c:9a:e0:e0:d2:33:d1:92:89:eb:d8:82:
                    01:38:d8:39:ae:9d:3b:84:5f:a5:e8:bc:68:4a:ab:
                    d4:06:33:b6:c5:b4:75:54:9f:af:ad:6c:77:1e:60:
                    26:02:b6:62:95:52:3e:20:55:0b:c4:4f:56:ad:db:
                    fd:d4:3a:5b:cd:2b:89:9a:93:b7:ab:be:51:4d:9c:
                    0b:69:8e:cc:a2:3a:ce:d7:83:0c:c0:e6:a3:a1:6a:
                    8a:83:12:6e:26:2d:73:a3:de:0f:aa:dc:2d:e2:f3:
                    d8:48:58:91:5a:0e:cd:43:78:2a:91:fc:b4:1b:82:
                    33:10:c3:24:b6:7b:1c:1b:ff:e7:18:bf:c3:14:c0:
                    dd:f8:f2:f1:c6:98:19:59:09:7a:61:fb:00:c4:ef:
                    88:f1:cb:1f:1f:ca:a6:21:ad:75:83:bc:34:32:c4:
                    6b:e3:f0:14:42:b1:92:53:77:c7:8e:68:0f:48:f4:
                    2a:c8:e9:0d:c3:63:11:6a:cc:28:b3:6a:c5:bb:9a:
                    0b:3c:a7:3f:05:29:c0:7f:ba:45:51:b7:19:a6:f9:
                    11:aa:15:4b:5a:4e:ba:0e:2e:ac:97:5a:00:c6:f2:
                    ec:05:d0:dd:c9:1a:86:69:18:cc:55:9c:80:f5:7d:
                    da:5c:8b:57:89:38:f9:0b:85:8b:83:ad:ae:aa:37:
                    f4:3c:0e:13:74:c6:8c:5a:64:e9:d5:6d:f9:fe:89:
                    5a:87:88:40:30:39:c0:99:02:f0:0e:b3:78:69:db:
                    79:d2:5c:fe:ed:c5:23:33:34:26:e0:c1:4f:e2:c5:
                    eb:98:45:44:e7:d7:39:4d:64:21:b6:d1:74:d3:9c:
                    25:6a:05:e2:b3:f2:00:16:fe:f7:77:f2:27:eb:1f:
                    21:14:71:98:e9:04:a0:1c:07:7e:b2:8d:9e:4b:17:
                    1e:10:eb:b2:57:7c:d5:3d:05:61:e6:89:00:be:f1:
                    e8:2a:70:d7:f9:9a:d6:95:8f:58:9e:2c:76:13:45:
                    dc:85:65:88:ed:be:79:2d:b0:9b:77:3a:fd:33:a0:
                    5f:19:41:ce:69:98:59:a6:3e:f6:3e:3b:ec:e5:f6:
                    aa:c3:be:dc:e9:dd:77:f0:23:71:05:b0:00:af:8c:
                    30:4e:4b:01:eb:4f:e5:3b:f3:4d:40:df:88:ad:eb:
                    cc:cc:4a:a2:23:74:26:3e:6f:54:4b:de:ac:32:df:
                    60:50:03:f8:ce:46:4b:64:ef:cc:f6:98:2e:7c:22:
                    c4:d7:07
                Exponent: 65537 (0x10001)
        X509v3 extensions:
            X509v3 Subject Key Identifier: 
                30:71:57:F8:95:59:36:7D:38:DE:B4:FE:E4:B1:85:54:74:18:92:28
            X509v3 Authority Key Identifier: 
                keyid:5A:48:4D:08:A7:36:08:AE:20:C5:CE:A1:8E:50:E2:1D:95:26:91:64

            X509v3 Basic Constraints: 
                CA:FALSE
            X509v3 Key Usage: 
                Digital Signature, Key Encipherment
    Signature Algorithm: sha256WithRSAEncryption
         56:dc:44:d1:a3:6d:01:2b:2a:70:a1:0b:a1:67:b4:9f:e5:3e:
         d4:28:9e:8b:c3:b7:b8:20:b3:65:ac:38:3b:86:76:e9:23:32:
         d5:70:69:89:3e:78:c5:27:7b:15:5e:7b:71:ff:4f:5f:54:83:
         d7:2a:e0:00:aa:8e:0c:33:0b:69:86:19:e3:e9:9d:f0:18:5f:
         de:58:e6:a7:5a:6e:aa:a4:93:37:f0:be:d7:15:66:35:ce:3b:
         5b:b8:25:c1:bf:bd:72:53:48:b8:79:65:a4:ca:f1:7d:2b:0d:
         43:81:3c:21:7a:b3:56:3f:2d:d7:2b:a8:c7:c9:39:bd:e6:b2:
         d7:58:59:a7:27:6d:cd:74:74:ee:00:34:b8:ad:99:c4:58:72:
         17:7b:5e:30:2c:f6:c1:ab:59:f6:c2:bc:63:21:09:ab:c0:01:
         47:5c:91:a9:8f:c6:cb:f8:c2:28:24:01:75:4f:80:24:5d:6e:
         75:ac:f9:c4:42:41:f3:0e:40:9b:25:74:60:ce:26:eb:42:ba:
         fb:4d:f0:5e:70:eb:40:14:22:81:85:98:75:a7:6b:01:ba:85:
         9a:c1:34:58:6a:57:f9:37:f4:c2:a9:ca:ee:96:e9:83:1a:f6:
         c1:b3:90:be:e1:15:42:44:f8:92:e5:67:af:2b:5a:15:16:e7:
         21:7f:e0:c4:1e:f4:72:37:9a:76:13:c2:88:eb:39:a0:ea:06:
         0a:3f:89:60:d9:8e:9b:05:5f:3b:be:c0:97:c5:57:71:a2:01:
         6f:15:3b:c6:32:4a:6e:f2:76:b5:b4:15:34:82:62:bd:9a:bc:
         d0:4f:ce:3e:ed:a8:01:66:ea:20:df:77:91:be:a6:84:fe:6c:
         93:88:00:4b:7b:78:02:e4:14:62:20:83:0f:be:8a:fa:89:ee:
         1f:71:4c:ea:2d:18:53:05:74:ce:2c:04:ce:24:c5:bf:31:8d:
         38:6a:6a:ad:f9:22:c2:35:69:f7:c6:03:c8:50:84:50:a6:62:
         c0:a1:2d:2e:01:30:26:53:63:76:da:ca:b2:a2:ea:88:69:ca:
         c5:7e:f2:9c:60:ef:ad:a0:b4:80:d9:23:63:c8:79:f0:24:00:
         b4:4b:66:b2:3a:0b:8f:0f:73:57:b8:2f:d5:6d:d2:54:66:0a:
         21:9c:c7:27:15:6c:09:d9:c6:0e:b2:f1:e1:a2:70:0c:72:60:
         72:0d:6c:0f:f9:a2:7c:a9:c5:bf:11:08:09:ec:39:68:8d:06:
         65:2f:36:81:94:8f:7c:d5:05:ad:77:96:b8:89:4b:cd:9a:7b:
         39:d7:68:6b:c6:81:82:24:50:3f:05:5c:d5:ec:d7:09:b1:7f:
         4f:f3:bd:07:98:19:b8:3f
-----BEGIN CERTIFICATE-----
MIIFsjCCA5qgAwIBAgIBCDANBgkqhkiG9w0BAQsFADCBiTELMAkGA1UEBhMCSU4x
DjAMBgNVBAgMBURlbGhpMQ4wDAYDVQQHDAVEZWxoaTEOMAwGA1UECgwFSUlJVEQx
CzAJBgNVBAsMAk5TMRIwEAYDVQQDDAlHdXJzaW1yYW4xKTAnBgkqhkiG9w0BCQEW
Gmd1cnNpbXJhbjE0MDQxQGlpaXRkLmFjLmluMB4XDTE2MTEzMDAzNTU1OVoXDTE5
MDgyNzAzNTU1OVowUzELMAkGA1UEBhMCaW4xDDAKBgNVBAgMA2RlbDEMMAoGA1UE
BwwDZGVsMQ0wCwYDVQQKDARpaWl0MQswCQYDVQQLDAJuczEMMAoGA1UEAwwDYm9i
MIICIjANBgkqhkiG9w0BAQEFAAOCAg8AMIICCgKCAgEAwSCSXb3bQ6pcJZgksGXe
Ias1g2+pWG///BZFJJEBEXl8k5vW/s7LH8L//hgQb118muDg0jPRkonr2IIBONg5
rp07hF+l6LxoSqvUBjO2xbR1VJ+vrWx3HmAmArZilVI+IFULxE9Wrdv91DpbzSuJ
mpO3q75RTZwLaY7MojrO14MMwOajoWqKgxJuJi1zo94Pqtwt4vPYSFiRWg7NQ3gq
kfy0G4IzEMMktnscG//nGL/DFMDd+PLxxpgZWQl6YfsAxO+I8csfH8qmIa11g7w0
MsRr4/AUQrGSU3fHjmgPSPQqyOkNw2MRaswos2rFu5oLPKc/BSnAf7pFUbcZpvkR
qhVLWk66Di6sl1oAxvLsBdDdyRqGaRjMVZyA9X3aXItXiTj5C4WLg62uqjf0PA4T
dMaMWmTp1W35/olah4hAMDnAmQLwDrN4adt50lz+7cUjMzQm4MFP4sXrmEVE59c5
TWQhttF005wlagXis/IAFv73d/In6x8hFHGY6QSgHAd+so2eSxceEOuyV3zVPQVh
5okAvvHoKnDX+ZrWlY9Ynix2E0XchWWI7b55LbCbdzr9M6BfGUHOaZhZpj72Pjvs
5faqw77c6d138CNxBbAAr4wwTksB60/lO/NNQN+IrevMzEqiI3QmPm9US96sMt9g
UAP4zkZLZO/M9pgufCLE1wcCAwEAAaNaMFgwHQYDVR0OBBYEFDBxV/iVWTZ9ON60
/uSxhVR0GJIoMB8GA1UdIwQYMBaAFFpITQinNgiuIMXOoY5Q4h2VJpFkMAkGA1Ud
EwQCMAAwCwYDVR0PBAQDAgWgMA0GCSqGSIb3DQEBCwUAA4ICAQBW3ETRo20BKypw
oQuhZ7Sf5T7UKJ6Lw7e4ILNlrDg7hnbpIzLVcGmJPnjFJ3sVXntx/09fVIPXKuAA
qo4MMwtphhnj6Z3wGF/eWOanWm6qpJM38L7XFWY1zjtbuCXBv71yU0i4eWWkyvF9
Kw1DgTwherNWPy3XK6jHyTm95rLXWFmnJ23NdHTuADS4rZnEWHIXe14wLPbBq1n2
wrxjIQmrwAFHXJGpj8bL+MIoJAF1T4AkXW51rPnEQkHzDkCbJXRgzibrQrr7TfBe
cOtAFCKBhZh1p2sBuoWawTRYalf5N/TCqcrulumDGvbBs5C+4RVCRPiS5WevK1oV
Fuchf+DEHvRyN5p2E8KI6zmg6gYKP4lg2Y6bBV87vsCXxVdxogFvFTvGMkpu8na1
tBU0gmK9mrzQT84+7agBZuog33eRvqaE/myTiABLe3gC5BRiIIMPvor6ie4fcUzq
LRhTBXTOLATOJMW/MY04amqt+SLCNWn3xgPIUIRQpmLAoS0uATAmU2N22sqyouqI
acrFfvKcYO+toLSA2SNjyHnwJAC0S2ayOguPD3NXuC/VbdJUZgohnMcnFWwJ2cYO
svHhonAMcmByDWwP+aJ8qcW/EQgJ7DlojQZlLzaBlI981QWtd5a4iUvNmns512hr
xoGCJFA/BVzV7NcJsX9P870HmBm4Pw==
-----END CERTIFICATE-----
