Certificate:
    Data:
        Version: 3 (0x2)
        Serial Number: 9 (0x9)
    Signature Algorithm: sha256WithRSAEncryption
        Issuer: C=IN, ST=Delhi, L=Delhi, O=IIITD, OU=NS, CN=Gursimran/emailAddress=gursimran14041@iiitd.ac.in
        Validity
            Not Before: Nov 30 04:03:15 2016 GMT
            Not After : Aug 27 04:03:15 2019 GMT
        Subject: C=in, ST=del, L=del, O=iiit, OU=ns, CN=alice
        Subject Public Key Info:
            Public Key Algorithm: rsaEncryption
                Public-Key: (4096 bit)
                Modulus:
                    00:b6:67:38:68:bb:72:a9:85:c7:18:52:92:16:7c:
                    b3:99:42:2b:3c:56:2b:71:fd:aa:86:72:0a:3e:66:
                    d5:44:c7:e3:09:3e:41:ee:68:50:72:77:bd:8c:c4:
                    6f:53:75:31:1f:a9:1b:5e:6e:31:58:67:46:0e:62:
                    a9:3a:13:6e:d9:e4:c6:18:5f:29:9d:4e:03:21:89:
                    0a:d3:27:c0:fc:64:84:e9:23:9d:00:9f:19:7f:78:
                    59:f1:94:2b:81:6c:85:47:73:50:19:bb:9a:b7:b8:
                    2c:c5:3f:57:dd:33:47:ba:89:de:7c:75:66:ca:ad:
                    b1:ba:35:66:69:3e:56:e6:94:20:8b:f7:08:72:b4:
                    06:4b:f4:b9:59:ed:b4:33:33:37:b5:cc:31:2f:db:
                    d7:a3:d2:df:0e:b3:bf:26:86:d6:04:3b:27:e6:de:
                    fb:90:53:16:51:4f:60:e6:c4:fd:7a:63:55:52:b1:
                    5f:9f:54:45:f1:c4:87:ca:0f:b6:d6:9c:2a:3d:e5:
                    50:32:da:b1:93:da:5c:f3:73:75:9d:26:7a:d6:73:
                    12:94:a3:80:f3:d6:0b:1b:4c:8d:4c:67:2a:f8:5d:
                    c8:e8:cf:cd:37:8c:0b:5c:10:92:af:84:74:8b:ef:
                    e4:3e:ca:8d:8a:e5:40:fd:00:94:60:69:85:11:da:
                    98:7c:0f:9c:51:bd:4e:17:86:67:3d:39:46:75:24:
                    c5:88:b2:9d:66:58:16:ba:34:cd:9f:0b:0a:fb:ae:
                    ab:a2:a9:df:32:e8:d3:92:ee:99:ea:de:32:8a:da:
                    20:ee:24:44:ea:ec:1d:c4:d3:70:fc:07:3b:f0:ea:
                    03:2d:88:b9:45:ce:c2:39:8d:1c:da:bd:c7:24:72:
                    e0:bb:96:c9:41:a7:df:e6:df:9d:94:83:14:66:7b:
                    3b:ff:6e:bc:13:e3:2c:0e:f2:7a:2c:e2:22:67:69:
                    d9:b8:59:bb:d2:c5:86:9c:41:a0:d3:f1:c3:36:38:
                    a2:fc:85:c4:a0:24:97:28:f6:77:0d:d3:a3:c3:64:
                    4d:93:94:7d:e2:e3:e2:44:58:42:4b:dd:18:1e:33:
                    15:f3:eb:2c:1f:5e:7d:d9:e3:59:a6:46:d4:09:a0:
                    b1:7b:a3:52:cb:ca:88:0e:c3:01:e7:79:ee:55:38:
                    ac:26:bd:02:8e:84:f6:9a:4a:77:5b:05:80:b9:d9:
                    bc:fe:30:ad:94:5e:20:7d:c1:73:ce:90:c3:0b:58:
                    c6:ed:fb:18:0f:05:d6:a4:f7:c9:68:d3:77:33:c4:
                    ec:61:2e:bb:06:3f:7b:82:8b:dd:50:27:5b:40:35:
                    74:7e:76:e1:3b:f3:3a:66:73:fd:1f:8f:ea:e6:f5:
                    c2:07:5f
                Exponent: 65537 (0x10001)
        X509v3 extensions:
            X509v3 Subject Key Identifier: 
                DE:F2:9D:98:A0:36:DE:69:DC:C0:D5:B1:44:E6:21:C2:EC:58:DD:90
            X509v3 Authority Key Identifier: 
                keyid:5A:48:4D:08:A7:36:08:AE:20:C5:CE:A1:8E:50:E2:1D:95:26:91:64

            X509v3 Basic Constraints: 
                CA:FALSE
            X509v3 Key Usage: 
                Digital Signature, Key Encipherment
    Signature Algorithm: sha256WithRSAEncryption
         51:23:16:d0:9a:59:f9:4b:6b:f1:3d:56:8c:e9:99:4d:ac:54:
         26:33:84:a1:be:c0:92:0a:88:14:23:f1:ae:d3:47:29:58:ae:
         e8:ab:24:33:4e:2b:a9:9b:dc:70:2d:79:eb:b8:ad:5f:fb:c8:
         ab:1a:2c:c6:09:18:37:5d:56:7c:4a:28:40:dc:d7:cb:94:b4:
         56:c2:56:33:ca:94:05:67:c8:c2:be:a2:af:93:e5:8c:b5:ad:
         af:74:da:ba:84:93:5a:30:ec:53:b2:24:d1:02:a0:90:66:53:
         0c:df:34:f0:e5:d8:3f:f2:31:dd:a1:bc:c5:b0:df:62:a2:7e:
         ef:a2:3b:ea:3c:76:b8:9a:ae:d8:90:91:33:84:2a:82:cf:48:
         74:47:c6:5f:b8:8c:6f:06:a8:4d:77:e4:8b:fe:06:96:25:2b:
         42:71:ea:d0:d5:17:cc:f9:a6:1f:4f:25:db:93:69:39:74:c6:
         2c:52:b5:06:9b:4f:9b:ef:40:ca:37:77:cd:88:c7:88:bd:5f:
         f4:00:dc:be:66:b0:02:69:30:fb:c0:74:ed:f2:b9:76:98:15:
         ba:ea:39:56:c9:22:b5:d9:1f:20:14:32:41:a3:fa:7d:11:78:
         2e:30:75:f0:4c:4f:b5:bf:e8:f7:f8:5f:f7:ed:26:c4:3b:60:
         bd:94:db:26:96:07:9c:57:65:22:1b:df:e4:56:da:81:2e:b9:
         0f:ae:77:25:2c:aa:98:8c:d4:8e:dd:2c:da:f6:0f:22:1b:d0:
         64:b5:9f:39:f4:f7:81:c0:73:4d:da:f6:99:76:8b:ee:b7:f2:
         07:03:cb:65:5c:e3:09:e0:b4:74:2f:09:e4:60:a1:a3:12:89:
         dc:33:b7:2e:e0:6d:d4:92:de:ba:46:c4:90:4d:9e:c8:f2:3a:
         df:52:8e:31:7c:8c:35:03:d1:07:08:c1:9c:0f:c4:b1:7c:f5:
         e9:18:44:28:ce:ab:e8:c4:bb:67:c4:e9:ae:96:28:86:67:e5:
         bc:bb:5b:39:0b:de:5c:03:43:c7:93:98:fa:50:b8:4c:63:4f:
         10:10:14:d4:dd:aa:a1:71:b8:30:27:db:03:2d:49:5c:1c:f4:
         dd:a9:62:6f:ed:03:97:e1:26:e6:05:4b:e1:33:2f:20:30:b6:
         bd:a8:0c:3b:23:0e:3b:45:1b:e5:29:17:a5:a8:d3:02:50:37:
         81:47:a6:be:8f:1f:05:f5:82:b2:56:7e:eb:da:c9:72:3c:a9:
         85:cc:fe:ec:09:50:90:29:66:80:d3:79:84:f0:0c:77:ba:6e:
         79:72:de:48:c8:e7:c1:14:39:3f:91:b6:6a:a6:bd:6a:28:96:
         a1:1d:3a:37:67:0b:bc:47
-----BEGIN CERTIFICATE-----
MIIFtDCCA5ygAwIBAgIBCTANBgkqhkiG9w0BAQsFADCBiTELMAkGA1UEBhMCSU4x
DjAMBgNVBAgMBURlbGhpMQ4wDAYDVQQHDAVEZWxoaTEOMAwGA1UECgwFSUlJVEQx
CzAJBgNVBAsMAk5TMRIwEAYDVQQDDAlHdXJzaW1yYW4xKTAnBgkqhkiG9w0BCQEW
Gmd1cnNpbXJhbjE0MDQxQGlpaXRkLmFjLmluMB4XDTE2MTEzMDA0MDMxNVoXDTE5
MDgyNzA0MDMxNVowVTELMAkGA1UEBhMCaW4xDDAKBgNVBAgMA2RlbDEMMAoGA1UE
BwwDZGVsMQ0wCwYDVQQKDARpaWl0MQswCQYDVQQLDAJuczEOMAwGA1UEAwwFYWxp
Y2UwggIiMA0GCSqGSIb3DQEBAQUAA4ICDwAwggIKAoICAQC2Zzhou3KphccYUpIW
fLOZQis8Vitx/aqGcgo+ZtVEx+MJPkHuaFByd72MxG9TdTEfqRtebjFYZ0YOYqk6
E27Z5MYYXymdTgMhiQrTJ8D8ZITpI50Anxl/eFnxlCuBbIVHc1AZu5q3uCzFP1fd
M0e6id58dWbKrbG6NWZpPlbmlCCL9whytAZL9LlZ7bQzMze1zDEv29ej0t8Os78m
htYEOyfm3vuQUxZRT2DmxP16Y1VSsV+fVEXxxIfKD7bWnCo95VAy2rGT2lzzc3Wd
JnrWcxKUo4Dz1gsbTI1MZyr4Xcjoz803jAtcEJKvhHSL7+Q+yo2K5UD9AJRgaYUR
2ph8D5xRvU4Xhmc9OUZ1JMWIsp1mWBa6NM2fCwr7rquiqd8y6NOS7pnq3jKK2iDu
JETq7B3E03D8Bzvw6gMtiLlFzsI5jRzavcckcuC7lslBp9/m352UgxRmezv/brwT
4ywO8nos4iJnadm4WbvSxYacQaDT8cM2OKL8hcSgJJco9ncN06PDZE2TlH3i4+JE
WEJL3RgeMxXz6ywfXn3Z41mmRtQJoLF7o1LLyogOwwHnee5VOKwmvQKOhPaaSndb
BYC52bz+MK2UXiB9wXPOkMMLWMbt+xgPBdak98lo03czxOxhLrsGP3uCi91QJ1tA
NXR+duE78zpmc/0fj+rm9cIHXwIDAQABo1owWDAdBgNVHQ4EFgQU3vKdmKA23mnc
wNWxROYhwuxY3ZAwHwYDVR0jBBgwFoAUWkhNCKc2CK4gxc6hjlDiHZUmkWQwCQYD
VR0TBAIwADALBgNVHQ8EBAMCBaAwDQYJKoZIhvcNAQELBQADggIBAFEjFtCaWflL
a/E9VozpmU2sVCYzhKG+wJIKiBQj8a7TRylYruirJDNOK6mb3HAteeu4rV/7yKsa
LMYJGDddVnxKKEDc18uUtFbCVjPKlAVnyMK+oq+T5Yy1ra902rqEk1ow7FOyJNEC
oJBmUwzfNPDl2D/yMd2hvMWw32Kifu+iO+o8driartiQkTOEKoLPSHRHxl+4jG8G
qE135Iv+BpYlK0Jx6tDVF8z5ph9PJduTaTl0xixStQabT5vvQMo3d82Ix4i9X/QA
3L5msAJpMPvAdO3yuXaYFbrqOVbJIrXZHyAUMkGj+n0ReC4wdfBMT7W/6Pf4X/ft
JsQ7YL2U2yaWB5xXZSIb3+RW2oEuuQ+udyUsqpiM1I7dLNr2DyIb0GS1nzn094HA
c03a9pl2i+638gcDy2Vc4wngtHQvCeRgoaMSidwzty7gbdSS3rpGxJBNnsjyOt9S
jjF8jDUD0QcIwZwPxLF89ekYRCjOq+jEu2fE6a6WKIZn5by7WzkL3lwDQ8eTmPpQ
uExjTxAQFNTdqqFxuDAn2wMtSVwc9N2pYm/tA5fhJuYFS+EzLyAwtr2oDDsjDjtF
G+UpF6Wo0wJQN4FHpr6PHwX1grJWfuvayXI8qYXM/uwJUJApZoDTeYTwDHe6bnly
3kjI58EUOT+RtmqmvWoolqEdOjdnC7xH
-----END CERTIFICATE-----
