Certificate:
    Data:
        Version: 3 (0x2)
        Serial Number: 10 (0xa)
    Signature Algorithm: sha256WithRSAEncryption
        Issuer: C=IN, ST=Delhi, L=Delhi, O=IIITD, OU=NS, CN=Gursimran/emailAddress=gursimran14041@iiitd.ac.in
        Validity
            Not Before: Nov 30 04:03:56 2016 GMT
            Not After : Aug 27 04:03:56 2019 GMT
        Subject: C=in, ST=del, L=del, O=iiit, OU=ns, CN=bob
        Subject Public Key Info:
            Public Key Algorithm: rsaEncryption
                Public-Key: (4096 bit)
                Modulus:
                    00:9b:d7:aa:9c:04:40:62:1f:ad:43:5b:99:05:ac:
                    86:1f:44:5a:3c:84:a7:81:09:bb:ce:30:e5:09:57:
                    46:31:18:b0:a9:f6:22:fe:e3:72:d2:3a:21:39:e2:
                    1a:c0:c4:56:ed:38:c2:df:1c:dd:3a:bf:29:a2:0f:
                    59:23:16:ab:b5:2e:c8:80:aa:8d:43:0f:65:41:df:
                    1c:5c:01:d2:7b:bd:46:b4:e3:1e:30:94:f3:6e:52:
                    b6:f2:b9:8d:ce:dd:f7:a6:a5:db:e2:2f:eb:5c:cd:
                    ff:37:44:34:09:0e:54:f8:04:b1:14:ef:cb:61:bf:
                    7f:4f:2f:20:cd:25:46:81:ea:43:da:37:d2:9b:f0:
                    29:bf:62:a2:a7:09:bb:e8:30:00:29:76:e2:7f:39:
                    d7:f1:87:08:e7:0e:18:36:8b:24:d8:a3:cb:58:25:
                    cc:7c:69:00:5a:3f:22:25:d5:27:42:ab:93:64:b9:
                    07:76:0f:a6:01:f8:11:f3:bb:ae:ec:2a:25:68:f3:
                    36:9f:64:b0:bd:32:48:a5:7a:4d:80:bb:dc:88:fa:
                    d0:70:ce:82:1a:1e:33:5f:32:b2:26:70:91:f3:ec:
                    e1:ed:a5:f5:f3:50:41:61:b3:a0:25:b5:1c:74:30:
                    d6:ee:41:e7:1d:74:d2:6d:2d:44:67:cc:07:c5:67:
                    ed:75:04:af:17:66:4a:98:7b:01:1c:84:22:c3:57:
                    1a:6e:d1:e8:68:1f:dd:a8:db:35:0f:66:b3:75:86:
                    59:4f:89:0e:7c:6a:db:8e:6b:ec:7a:3d:ad:8a:81:
                    e3:b5:d2:57:6e:6b:eb:c4:ea:bc:08:19:5f:f8:49:
                    df:ac:bf:b9:73:54:c0:a1:90:9f:48:9d:d9:71:c9:
                    f6:70:5b:58:14:4b:89:f9:37:a7:f0:ed:43:86:d3:
                    bf:69:59:ee:6c:e8:a2:b2:3d:9a:ed:3b:a5:bb:8f:
                    3d:5f:2b:f0:ed:ba:f3:9d:01:ba:71:1f:15:9c:f4:
                    f4:8b:ba:ff:60:f5:f8:5f:1f:c8:39:61:f1:c9:3c:
                    5d:bc:5c:6f:f4:08:76:26:3f:4e:fc:15:02:01:47:
                    2b:c8:0c:65:8e:85:13:ab:05:a3:c7:fe:39:71:f3:
                    8d:65:a6:e2:df:16:8a:5b:a2:bc:4a:12:18:0d:04:
                    4f:bb:b3:40:2c:58:0e:f8:f9:b5:2a:38:20:7e:ee:
                    0a:1a:0a:be:d8:22:35:4a:a7:26:7d:56:dc:6e:01:
                    65:b4:24:5c:0e:19:0c:7e:26:5c:e4:4e:1f:ec:96:
                    aa:61:51:76:8a:1f:65:3c:3e:d9:34:fc:73:6e:89:
                    d7:cb:db:be:4e:73:cc:e4:15:73:de:f0:c8:ab:0d:
                    32:cb:05
                Exponent: 65537 (0x10001)
        X509v3 extensions:
            X509v3 Subject Key Identifier: 
                43:14:18:2A:EF:37:90:48:1A:81:85:90:49:D2:F0:BF:DD:2A:7B:32
            X509v3 Authority Key Identifier: 
                keyid:5A:48:4D:08:A7:36:08:AE:20:C5:CE:A1:8E:50:E2:1D:95:26:91:64

            X509v3 Basic Constraints: 
                CA:FALSE
            X509v3 Key Usage: 
                Digital Signature, Key Encipherment
    Signature Algorithm: sha256WithRSAEncryption
         c7:c5:bf:f6:cc:2f:aa:0a:72:96:3b:1f:d7:3b:5c:bd:b0:17:
         0c:4a:0c:6e:ec:89:ea:cf:69:80:1f:48:09:4c:b7:b6:34:4a:
         53:0a:7d:1d:77:3a:6f:d3:bc:d4:45:9f:11:8e:6a:cd:ea:3b:
         ae:55:7a:d5:99:d6:ae:fa:bb:88:58:55:5f:1f:12:a6:9e:7e:
         5e:a6:9e:38:6c:de:05:4f:91:11:58:a1:66:b7:cd:93:9b:22:
         fc:37:9d:16:64:5c:c9:05:c2:9f:8d:e2:55:ff:0d:e4:25:8b:
         db:4b:6a:18:7b:e2:4d:21:5b:5c:f4:cb:bf:bf:64:f0:46:9c:
         dc:d5:e0:ba:88:19:6c:c9:2c:35:fe:8c:d6:22:db:a4:1b:18:
         9e:03:e2:04:e1:9f:2c:a5:92:75:b3:3e:8f:64:72:79:7c:5c:
         f5:14:09:52:c4:91:04:86:da:81:1e:74:98:46:07:38:bd:78:
         3b:19:8b:6b:1c:1c:64:13:21:aa:e0:fa:92:98:a3:57:60:1e:
         48:7c:a8:08:53:3d:42:35:f3:f1:a5:8e:16:54:9d:2e:8b:c7:
         ce:4e:c8:4d:18:5a:25:c4:1f:30:fd:40:53:4c:c6:28:e7:e6:
         79:1b:4e:65:0e:4e:c0:e6:ae:72:80:fe:19:ef:db:79:f3:6a:
         84:28:59:9b:48:5b:67:06:2b:c7:96:59:ed:18:8a:75:1c:2b:
         20:61:38:72:4e:12:cb:0f:e4:1a:37:70:45:a0:3f:cc:e2:8f:
         14:9f:b8:68:00:42:22:92:e6:83:f2:37:00:ba:7f:16:3a:13:
         92:bc:74:84:05:8d:07:88:85:af:d9:f3:69:e2:b2:75:dd:d3:
         81:66:60:23:df:0e:1e:ae:e7:73:a2:e6:5b:bc:0b:ca:e7:47:
         34:1e:00:4a:bb:64:70:4a:76:c0:7e:12:78:c3:26:e7:b9:99:
         9b:5d:b1:e0:b2:22:c7:e3:3f:20:62:22:6c:24:4b:88:24:73:
         1e:33:e9:8a:9b:71:03:21:d0:d2:d4:b7:b6:d7:ff:66:b0:34:
         77:30:c1:d2:bb:fa:e1:ac:e3:d5:d1:e8:dc:60:60:34:10:63:
         77:5e:82:e4:67:63:40:57:39:4f:84:74:bc:10:c7:47:3d:01:
         41:29:17:69:34:c9:f5:ac:b7:eb:e4:19:6d:7c:9c:f3:ed:f0:
         c9:d2:f2:37:cb:d7:fa:62:83:d3:7d:55:48:da:b8:0e:c6:60:
         ef:dd:d1:bf:17:aa:65:d9:52:ae:e4:15:ee:85:b3:bd:fd:bc:
         bd:af:e6:99:9f:17:93:b2:88:9f:82:26:99:d2:e8:a9:e6:7e:
         84:83:0c:11:d4:d7:1b:b8
-----BEGIN CERTIFICATE-----
MIIFsjCCA5qgAwIBAgIBCjANBgkqhkiG9w0BAQsFADCBiTELMAkGA1UEBhMCSU4x
DjAMBgNVBAgMBURlbGhpMQ4wDAYDVQQHDAVEZWxoaTEOMAwGA1UECgwFSUlJVEQx
CzAJBgNVBAsMAk5TMRIwEAYDVQQDDAlHdXJzaW1yYW4xKTAnBgkqhkiG9w0BCQEW
Gmd1cnNpbXJhbjE0MDQxQGlpaXRkLmFjLmluMB4XDTE2MTEzMDA0MDM1NloXDTE5
MDgyNzA0MDM1NlowUzELMAkGA1UEBhMCaW4xDDAKBgNVBAgMA2RlbDEMMAoGA1UE
BwwDZGVsMQ0wCwYDVQQKDARpaWl0MQswCQYDVQQLDAJuczEMMAoGA1UEAwwDYm9i
MIICIjANBgkqhkiG9w0BAQEFAAOCAg8AMIICCgKCAgEAm9eqnARAYh+tQ1uZBayG
H0RaPISngQm7zjDlCVdGMRiwqfYi/uNy0johOeIawMRW7TjC3xzdOr8pog9ZIxar
tS7IgKqNQw9lQd8cXAHSe71GtOMeMJTzblK28rmNzt33pqXb4i/rXM3/N0Q0CQ5U
+ASxFO/LYb9/Ty8gzSVGgepD2jfSm/Apv2Kipwm76DAAKXbifznX8YcI5w4YNosk
2KPLWCXMfGkAWj8iJdUnQquTZLkHdg+mAfgR87uu7ColaPM2n2SwvTJIpXpNgLvc
iPrQcM6CGh4zXzKyJnCR8+zh7aX181BBYbOgJbUcdDDW7kHnHXTSbS1EZ8wHxWft
dQSvF2ZKmHsBHIQiw1cabtHoaB/dqNs1D2azdYZZT4kOfGrbjmvsej2tioHjtdJX
bmvrxOq8CBlf+EnfrL+5c1TAoZCfSJ3Zccn2cFtYFEuJ+Ten8O1DhtO/aVnubOii
sj2a7Tulu489Xyvw7brznQG6cR8VnPT0i7r/YPX4Xx/IOWHxyTxdvFxv9Ah2Jj9O
/BUCAUcryAxljoUTqwWjx/45cfONZabi3xaKW6K8ShIYDQRPu7NALFgO+Pm1Kjgg
fu4KGgq+2CI1SqcmfVbcbgFltCRcDhkMfiZc5E4f7JaqYVF2ih9lPD7ZNPxzbonX
y9u+TnPM5BVz3vDIqw0yywUCAwEAAaNaMFgwHQYDVR0OBBYEFEMUGCrvN5BIGoGF
kEnS8L/dKnsyMB8GA1UdIwQYMBaAFFpITQinNgiuIMXOoY5Q4h2VJpFkMAkGA1Ud
EwQCMAAwCwYDVR0PBAQDAgWgMA0GCSqGSIb3DQEBCwUAA4ICAQDHxb/2zC+qCnKW
Ox/XO1y9sBcMSgxu7Inqz2mAH0gJTLe2NEpTCn0ddzpv07zURZ8RjmrN6juuVXrV
mdau+ruIWFVfHxKmnn5epp44bN4FT5ERWKFmt82TmyL8N50WZFzJBcKfjeJV/w3k
JYvbS2oYe+JNIVtc9Mu/v2TwRpzc1eC6iBlsySw1/ozWItukGxieA+IE4Z8spZJ1
sz6PZHJ5fFz1FAlSxJEEhtqBHnSYRgc4vXg7GYtrHBxkEyGq4PqSmKNXYB5IfKgI
Uz1CNfPxpY4WVJ0ui8fOTshNGFolxB8w/UBTTMYo5+Z5G05lDk7A5q5ygP4Z79t5
82qEKFmbSFtnBivHllntGIp1HCsgYThyThLLD+QaN3BFoD/M4o8Un7hoAEIikuaD
8jcAun8WOhOSvHSEBY0HiIWv2fNp4rJ13dOBZmAj3w4erudzouZbvAvK50c0HgBK
u2RwSnbAfhJ4wybnuZmbXbHgsiLH4z8gYiJsJEuIJHMeM+mKm3EDIdDS1Le21/9m
sDR3MMHSu/rhrOPV0ejcYGA0EGN3XoLkZ2NAVzlPhHS8EMdHPQFBKRdpNMn1rLfr
5BltfJzz7fDJ0vI3y9f6YoPTfVVI2rgOxmDv3dG/F6pl2VKu5BXuhbO9/by9r+aZ
nxeTsoifgiaZ0uip5n6EgwwR1NcbuA==
-----END CERTIFICATE-----
