Certificate:
    Data:
        Version: 3 (0x2)
        Serial Number: 11 (0xb)
    Signature Algorithm: sha256WithRSAEncryption
        Issuer: C=IN, ST=Delhi, L=Delhi, O=IIITD, OU=NS, CN=Gursimran/emailAddress=gursimran14041@iiitd.ac.in
        Validity
            Not Before: Nov 30 09:47:20 2016 GMT
            Not After : Aug 27 09:47:20 2019 GMT
        Subject: C=in, ST=del, L=del, O=iiit, OU=ns, CN=bob
        Subject Public Key Info:
            Public Key Algorithm: rsaEncryption
                Public-Key: (4096 bit)
                Modulus:
                    00:a6:b6:4a:f0:95:d9:5c:6d:99:d4:8d:ae:86:cd:
                    85:92:37:d2:40:7a:3b:3a:9b:4a:49:d2:a2:bf:2b:
                    c0:7f:6b:64:2e:d0:07:49:f2:41:b3:15:18:f7:89:
                    54:f0:4d:67:30:c2:c3:75:3b:7b:54:bb:6c:55:ae:
                    bc:06:01:00:bf:e5:19:25:f8:20:ad:d2:57:55:a6:
                    92:1e:84:15:76:d8:dd:58:3b:b7:52:6d:be:71:46:
                    ae:c4:fb:c5:c1:a8:43:7c:f6:5c:43:39:11:39:a8:
                    e0:bc:14:70:39:46:a2:1b:72:de:01:cb:f9:6b:93:
                    b7:df:94:94:b1:0f:6c:d4:f4:66:00:6f:e5:81:2c:
                    b2:56:d5:6a:8c:13:c8:92:0b:41:f5:e6:49:ff:93:
                    8e:f5:88:b9:6b:ea:f2:5a:51:bd:9e:e8:6f:18:66:
                    b4:32:68:a8:56:b7:cf:c4:a2:9c:71:2e:b5:8f:a4:
                    f4:db:ee:d0:70:9d:56:c2:d9:da:40:50:5e:7e:96:
                    ef:4d:be:e5:6d:5e:e8:61:26:70:b1:4b:f1:68:ca:
                    88:1f:24:90:e7:ec:95:9d:33:f5:96:ee:63:a0:07:
                    49:43:a5:16:3f:a1:f1:54:e6:7e:7e:c0:5c:4d:08:
                    60:1b:7c:c1:ba:ba:8e:db:3e:52:1f:81:dd:c4:c0:
                    1e:df:bf:d0:9f:2e:cb:d0:9a:25:e3:cb:c4:a2:fa:
                    8a:b1:bf:df:da:4f:0e:77:a6:9a:5f:83:14:af:9e:
                    70:0b:98:78:79:42:82:cc:1e:07:bd:57:cc:ee:6a:
                    f6:7b:e4:be:68:4e:aa:cd:8e:2c:a4:cd:55:9b:30:
                    10:21:aa:b5:3b:c9:23:0b:06:f3:b2:17:97:73:85:
                    18:9c:82:e5:29:f3:c4:91:eb:ad:2f:7b:48:4e:dd:
                    c7:a8:9c:14:ca:e2:a9:44:b2:93:2f:4b:fb:cf:80:
                    84:04:1f:dc:b0:2c:bd:76:b6:01:d0:60:28:8f:c3:
                    8d:9f:34:6a:33:92:cc:e3:7c:f7:fb:ea:6a:29:e4:
                    a7:0c:fd:5c:7c:74:df:8c:10:c0:f6:42:d9:71:41:
                    7f:0f:89:c8:1b:55:c0:f3:ac:55:ec:5c:84:cb:7b:
                    22:57:3b:90:55:37:75:0b:a3:be:f7:08:9d:61:92:
                    8c:33:fd:e5:ce:ef:62:a4:25:2b:2f:b4:9e:87:01:
                    1d:fe:15:b3:46:08:6f:33:82:51:e3:56:5b:8e:0a:
                    04:b2:5d:34:df:0e:35:37:0f:6c:69:71:95:8f:6c:
                    6d:13:b3:b1:ea:95:4c:e8:1e:c5:db:c6:5e:0d:93:
                    ab:a4:e4:2b:7f:58:b6:03:0f:db:38:2c:00:ad:ec:
                    d7:ac:61
                Exponent: 65537 (0x10001)
        X509v3 extensions:
            X509v3 Subject Key Identifier: 
                17:2E:5F:0E:61:B6:B7:66:4B:4D:AF:3A:BE:88:0D:7F:F2:D6:C8:26
            X509v3 Authority Key Identifier: 
                keyid:5A:48:4D:08:A7:36:08:AE:20:C5:CE:A1:8E:50:E2:1D:95:26:91:64

            X509v3 Basic Constraints: 
                CA:FALSE
            X509v3 Key Usage: 
                Digital Signature, Key Encipherment
    Signature Algorithm: sha256WithRSAEncryption
         c1:87:65:f7:88:fd:47:3e:05:21:b5:83:f1:ff:d5:fb:f5:c6:
         e6:b7:9b:16:fc:27:32:75:ba:f0:14:a0:fb:d7:85:66:f3:60:
         79:70:b9:1b:a3:5a:7b:09:95:e7:9e:fa:96:3c:23:eb:64:94:
         c6:6a:68:62:54:4e:39:d9:02:14:12:a8:44:a9:4e:f1:24:16:
         76:a6:75:2e:5a:96:5b:70:7c:16:07:14:bd:42:2c:87:1f:b0:
         c1:b6:21:97:cb:a2:ea:6c:80:20:43:3c:c7:d9:d7:a9:b1:5a:
         c8:a0:53:e9:4a:d3:2d:d2:12:a0:14:a3:60:33:91:8e:f9:6b:
         94:7a:b9:f9:31:3c:fb:78:fc:4c:5d:c4:34:a6:77:e5:99:2f:
         4a:95:64:d2:71:3b:11:cd:ca:d6:97:e6:ba:5b:4c:cd:fd:fe:
         b5:aa:b1:60:09:9c:67:0e:94:cd:00:13:fc:0d:f2:32:66:8d:
         8e:fc:c8:a0:c1:97:7c:5f:f4:b0:73:72:8d:da:a7:e4:e5:df:
         c7:b0:63:97:ac:db:ba:f5:eb:1a:3d:b1:27:76:61:20:c4:d3:
         c9:12:f4:7a:84:ba:61:17:c6:de:54:df:13:38:d7:00:7b:0c:
         f9:ee:83:f5:2e:32:8f:33:0b:18:a3:8a:58:44:2f:ac:fb:ef:
         73:39:38:e5:d9:5b:46:7b:e9:14:b4:d4:ab:cb:57:10:ae:59:
         cd:4d:46:80:df:2c:1d:2c:f2:5b:90:9c:b6:7e:4e:88:2a:e1:
         94:e7:e8:87:f6:20:0d:7a:d8:19:dd:63:34:4d:ee:38:d2:e0:
         68:66:8e:bf:e0:cc:3b:18:df:f6:a8:ee:a4:c3:e8:f7:bc:2c:
         a2:d1:7d:29:bc:f4:c7:8e:44:b5:01:6b:e7:29:f9:23:be:f9:
         a6:6a:59:02:0b:8d:10:15:21:c8:22:57:77:05:14:ed:c1:cb:
         6b:04:7d:f0:2c:b2:c8:63:0b:c8:0f:3e:9a:32:ad:6f:db:7b:
         4b:1f:ae:0e:b4:5c:1f:f5:9c:4e:f0:b3:2e:e1:42:c0:00:19:
         dc:46:f7:8a:af:60:50:38:de:25:50:b0:1d:e4:fe:e0:5e:7b:
         22:61:f7:16:70:4a:33:2e:44:51:12:ea:f9:49:45:53:d4:a7:
         ae:e5:9e:fd:2c:47:01:71:89:65:af:73:2c:f2:40:f1:42:97:
         6e:11:b8:d6:33:6c:84:24:5c:73:a7:ca:f5:77:53:b0:26:3c:
         cd:79:72:b5:2f:1f:9c:d1:a5:51:79:7b:1c:48:09:3d:7c:9e:
         d3:fd:06:be:d8:90:fd:11:32:2f:62:8d:20:de:d9:24:98:23:
         10:54:43:1c:9e:2c:48:aa
-----BEGIN CERTIFICATE-----
MIIFsjCCA5qgAwIBAgIBCzANBgkqhkiG9w0BAQsFADCBiTELMAkGA1UEBhMCSU4x
DjAMBgNVBAgMBURlbGhpMQ4wDAYDVQQHDAVEZWxoaTEOMAwGA1UECgwFSUlJVEQx
CzAJBgNVBAsMAk5TMRIwEAYDVQQDDAlHdXJzaW1yYW4xKTAnBgkqhkiG9w0BCQEW
Gmd1cnNpbXJhbjE0MDQxQGlpaXRkLmFjLmluMB4XDTE2MTEzMDA5NDcyMFoXDTE5
MDgyNzA5NDcyMFowUzELMAkGA1UEBhMCaW4xDDAKBgNVBAgMA2RlbDEMMAoGA1UE
BwwDZGVsMQ0wCwYDVQQKDARpaWl0MQswCQYDVQQLDAJuczEMMAoGA1UEAwwDYm9i
MIICIjANBgkqhkiG9w0BAQEFAAOCAg8AMIICCgKCAgEAprZK8JXZXG2Z1I2uhs2F
kjfSQHo7OptKSdKivyvAf2tkLtAHSfJBsxUY94lU8E1nMMLDdTt7VLtsVa68BgEA
v+UZJfggrdJXVaaSHoQVdtjdWDu3Um2+cUauxPvFwahDfPZcQzkROajgvBRwOUai
G3LeAcv5a5O335SUsQ9s1PRmAG/lgSyyVtVqjBPIkgtB9eZJ/5OO9Yi5a+ryWlG9
nuhvGGa0MmioVrfPxKKccS61j6T02+7QcJ1WwtnaQFBefpbvTb7lbV7oYSZwsUvx
aMqIHySQ5+yVnTP1lu5joAdJQ6UWP6HxVOZ+fsBcTQhgG3zBurqO2z5SH4HdxMAe
37/Qny7L0Jol48vEovqKsb/f2k8Od6aaX4MUr55wC5h4eUKCzB4HvVfM7mr2e+S+
aE6qzY4spM1VmzAQIaq1O8kjCwbzsheXc4UYnILlKfPEkeutL3tITt3HqJwUyuKp
RLKTL0v7z4CEBB/csCy9drYB0GAoj8ONnzRqM5LM43z3++pqKeSnDP1cfHTfjBDA
9kLZcUF/D4nIG1XA86xV7FyEy3siVzuQVTd1C6O+9widYZKMM/3lzu9ipCUrL7Se
hwEd/hWzRghvM4JR41ZbjgoEsl003w41Nw9saXGVj2xtE7Ox6pVM6B7F28ZeDZOr
pOQrf1i2Aw/bOCwArezXrGECAwEAAaNaMFgwHQYDVR0OBBYEFBcuXw5htrdmS02v
Or6IDX/y1sgmMB8GA1UdIwQYMBaAFFpITQinNgiuIMXOoY5Q4h2VJpFkMAkGA1Ud
EwQCMAAwCwYDVR0PBAQDAgWgMA0GCSqGSIb3DQEBCwUAA4ICAQDBh2X3iP1HPgUh
tYPx/9X79cbmt5sW/CcydbrwFKD714Vm82B5cLkbo1p7CZXnnvqWPCPrZJTGamhi
VE452QIUEqhEqU7xJBZ2pnUuWpZbcHwWBxS9QiyHH7DBtiGXy6LqbIAgQzzH2dep
sVrIoFPpStMt0hKgFKNgM5GO+WuUern5MTz7ePxMXcQ0pnflmS9KlWTScTsRzcrW
l+a6W0zN/f61qrFgCZxnDpTNABP8DfIyZo2O/MigwZd8X/Swc3KN2qfk5d/HsGOX
rNu69esaPbEndmEgxNPJEvR6hLphF8beVN8TONcAewz57oP1LjKPMwsYo4pYRC+s
++9zOTjl2VtGe+kUtNSry1cQrlnNTUaA3ywdLPJbkJy2fk6IKuGU5+iH9iANetgZ
3WM0Te440uBoZo6/4Mw7GN/2qO6kw+j3vCyi0X0pvPTHjkS1AWvnKfkjvvmmalkC
C40QFSHIIld3BRTtwctrBH3wLLLIYwvIDz6aMq1v23tLH64OtFwf9ZxO8LMu4ULA
ABncRveKr2BQON4lULAd5P7gXnsiYfcWcEozLkRREur5SUVT1Keu5Z79LEcBcYll
r3Ms8kDxQpduEbjWM2yEJFxzp8r1d1OwJjzNeXK1Lx+c0aVReXscSAk9fJ7T/Qa+
2JD9ETIvYo0g3tkkmCMQVEMcnixIqg==
-----END CERTIFICATE-----
