Certificate:
    Data:
        Version: 3 (0x2)
        Serial Number: 12 (0xc)
    Signature Algorithm: sha256WithRSAEncryption
        Issuer: C=IN, ST=Delhi, L=Delhi, O=IIITD, OU=NS, CN=Gursimran/emailAddress=gursimran14041@iiitd.ac.in
        Validity
            Not Before: Nov 30 09:48:09 2016 GMT
            Not After : Aug 27 09:48:09 2019 GMT
        Subject: C=in, ST=del, L=del, O=iiit, OU=ns, CN=alice
        Subject Public Key Info:
            Public Key Algorithm: rsaEncryption
                Public-Key: (4096 bit)
                Modulus:
                    00:c8:82:1f:38:dc:31:ec:b4:f7:87:31:df:c4:72:
                    d4:fa:3a:79:fb:9e:85:79:f3:16:04:45:ba:fd:eb:
                    bc:47:87:53:9a:97:6b:e4:d6:96:cd:73:09:b4:29:
                    2a:52:d8:ce:dc:71:ce:a8:44:b1:f8:cf:71:ff:3b:
                    8e:39:df:2d:e2:13:bd:a5:83:7a:9b:34:05:95:b3:
                    22:2e:b8:0f:9a:1f:38:29:d4:9f:d8:21:f2:6c:43:
                    ff:a6:69:7b:c3:4f:e0:62:dd:78:fa:ca:5a:f9:b7:
                    cd:fc:30:98:22:11:47:d3:a7:c9:eb:6d:1a:a2:7e:
                    d2:dd:75:a6:fa:6b:8a:12:3c:34:1e:81:35:a2:2a:
                    ed:5f:53:95:a6:a4:65:81:e4:31:74:0d:d6:cf:52:
                    db:a0:1f:07:bd:77:7b:74:a7:79:38:3e:03:f3:91:
                    ca:c5:f3:b7:93:55:a7:8a:8e:ce:78:30:d4:1b:e9:
                    1c:5f:36:42:c9:3e:16:e9:3a:7c:6f:fc:d7:55:c0:
                    31:e5:6f:03:23:87:0e:91:d7:a2:e3:26:a3:da:8d:
                    b9:d8:f0:eb:08:c8:b8:8d:6c:17:de:02:b5:97:df:
                    d0:48:a6:3d:00:f1:f4:aa:1c:70:81:75:66:70:da:
                    15:93:04:67:c6:92:e5:ae:f5:f8:23:60:ca:d4:06:
                    16:8e:a5:6e:27:f0:a3:ce:2d:d4:18:18:21:00:29:
                    45:d6:b9:23:84:5a:e8:94:76:05:66:46:f9:f3:5e:
                    41:6c:90:eb:78:ed:d9:c6:7f:79:70:c6:af:f4:ec:
                    ba:2d:8d:c7:c7:d4:75:37:55:66:24:cf:91:09:5d:
                    8e:03:85:c1:14:da:5e:5c:46:d8:b7:7a:30:a2:56:
                    fb:b7:68:05:0d:4a:6f:69:43:3e:e2:f7:4f:ca:b5:
                    7b:ca:60:50:32:39:5f:ac:d8:16:17:c8:1f:be:e5:
                    00:04:e1:13:68:15:22:44:50:a2:18:63:3b:d5:a3:
                    2f:82:7c:e5:8e:fa:34:2d:74:66:af:5f:9b:bb:e8:
                    30:ed:ba:da:fa:2d:f0:a6:40:c9:92:89:1b:fe:8c:
                    e7:16:a6:e4:4e:0c:16:27:3c:c1:6e:1b:2d:33:05:
                    b5:57:8b:56:21:d1:65:96:c7:03:2f:f4:fd:cf:b3:
                    23:83:e4:8e:2e:52:49:9a:32:5b:42:ae:b6:5c:33:
                    e4:64:f5:3b:87:89:2b:fa:a3:f1:c1:ac:5c:c1:8a:
                    96:fe:73:41:b0:83:57:b0:96:3e:88:f8:19:05:55:
                    07:20:29:02:43:29:ea:fc:96:90:7d:02:fe:63:c5:
                    b7:85:ff:34:a5:a2:d0:99:ec:8c:bd:af:be:43:2a:
                    6d:0a:17
                Exponent: 65537 (0x10001)
        X509v3 extensions:
            X509v3 Subject Key Identifier: 
                C6:BB:5C:9C:73:BC:D3:BE:AF:96:D4:B3:3B:63:6E:D1:8C:63:65:69
            X509v3 Authority Key Identifier: 
                keyid:5A:48:4D:08:A7:36:08:AE:20:C5:CE:A1:8E:50:E2:1D:95:26:91:64

            X509v3 Basic Constraints: 
                CA:FALSE
            X509v3 Key Usage: 
                Digital Signature, Key Encipherment
    Signature Algorithm: sha256WithRSAEncryption
         83:cf:b6:27:58:fe:df:e6:03:cc:fd:46:08:89:d5:97:b8:55:
         25:73:b0:d9:20:a7:d7:53:f1:c7:07:c9:32:83:77:f5:8c:66:
         b7:bf:2c:c9:da:08:a6:93:02:27:ba:fc:9e:40:c4:48:0a:22:
         62:2f:37:05:5e:59:9b:4b:9f:80:29:0f:dc:2e:a9:d1:72:21:
         76:b6:ed:4e:44:1e:46:7f:b5:85:04:ad:2a:ff:0c:e0:5c:73:
         fe:db:4d:f6:05:96:40:7f:0d:59:6b:57:f0:df:bc:15:da:c0:
         da:a9:b3:5d:9f:8e:1b:38:a4:14:f0:5f:85:37:2e:80:c5:fe:
         09:09:71:88:1a:2c:a8:e8:96:1b:97:e1:05:b9:a7:f8:c9:21:
         55:bc:2c:20:de:13:b4:c8:8a:24:80:2d:28:31:55:ba:36:2e:
         7f:36:02:12:8c:12:76:42:ed:f0:80:c3:07:b3:df:fa:30:63:
         d3:a6:2c:51:bc:c0:4d:1d:7c:0d:8e:6e:72:b6:9e:b6:21:d4:
         2d:1b:50:6f:11:b7:ee:fe:7a:30:73:8e:ae:89:eb:87:41:a7:
         be:2f:97:4e:0e:a6:6b:fd:3a:58:72:83:42:8f:a8:ca:b3:49:
         db:6f:46:80:e4:0d:db:21:2c:29:69:be:a2:f2:3f:c0:3b:9c:
         00:56:e4:ef:ce:a1:2e:37:d8:1f:1f:3a:2b:7e:5d:a8:e7:e3:
         8c:b8:0b:f2:9b:dd:80:88:bc:d9:d7:21:7a:08:8a:41:35:09:
         60:2a:31:7f:be:cd:0c:d4:df:4b:d3:39:fa:dc:fa:c1:84:16:
         af:ef:52:ad:ed:8d:31:ae:2b:07:29:22:53:2e:b6:08:7e:90:
         07:d5:a9:90:5f:50:9d:62:a0:28:f6:09:a6:cc:08:37:e9:52:
         6e:c0:b9:da:3e:6f:cf:22:84:cf:25:02:8a:89:29:a3:79:89:
         31:e3:98:51:b3:f3:60:27:29:05:bc:1d:39:14:d1:86:dd:cf:
         80:b4:89:67:b4:13:53:ca:65:bc:55:6a:65:74:00:de:d5:96:
         4c:6f:50:d4:05:1d:53:87:bd:9b:b7:24:ce:b4:a3:3c:c0:f5:
         d2:77:30:a5:d9:51:ee:ea:73:f8:80:60:f5:10:33:75:8a:86:
         c9:f6:7b:34:08:94:05:b6:cf:ee:27:80:97:4a:d9:fe:6c:d0:
         a4:50:61:ee:b5:be:19:5e:b6:e2:3f:74:d6:6d:cb:ee:9a:1e:
         a0:c2:98:a0:12:10:ff:1d:19:89:cd:7f:95:f7:3a:2a:a5:a9:
         16:f3:ac:fe:09:b9:e3:81:84:47:46:36:3d:bd:58:00:68:7d:
         67:7f:c0:7c:8c:0f:47:5a
-----BEGIN CERTIFICATE-----
MIIFtDCCA5ygAwIBAgIBDDANBgkqhkiG9w0BAQsFADCBiTELMAkGA1UEBhMCSU4x
DjAMBgNVBAgMBURlbGhpMQ4wDAYDVQQHDAVEZWxoaTEOMAwGA1UECgwFSUlJVEQx
CzAJBgNVBAsMAk5TMRIwEAYDVQQDDAlHdXJzaW1yYW4xKTAnBgkqhkiG9w0BCQEW
Gmd1cnNpbXJhbjE0MDQxQGlpaXRkLmFjLmluMB4XDTE2MTEzMDA5NDgwOVoXDTE5
MDgyNzA5NDgwOVowVTELMAkGA1UEBhMCaW4xDDAKBgNVBAgMA2RlbDEMMAoGA1UE
BwwDZGVsMQ0wCwYDVQQKDARpaWl0MQswCQYDVQQLDAJuczEOMAwGA1UEAwwFYWxp
Y2UwggIiMA0GCSqGSIb3DQEBAQUAA4ICDwAwggIKAoICAQDIgh843DHstPeHMd/E
ctT6Onn7noV58xYERbr967xHh1Oal2vk1pbNcwm0KSpS2M7ccc6oRLH4z3H/O445
3y3iE72lg3qbNAWVsyIuuA+aHzgp1J/YIfJsQ/+maXvDT+Bi3Xj6ylr5t838MJgi
EUfTp8nrbRqiftLddab6a4oSPDQegTWiKu1fU5WmpGWB5DF0DdbPUtugHwe9d3t0
p3k4PgPzkcrF87eTVaeKjs54MNQb6RxfNkLJPhbpOnxv/NdVwDHlbwMjhw6R16Lj
JqPajbnY8OsIyLiNbBfeArWX39BIpj0A8fSqHHCBdWZw2hWTBGfGkuWu9fgjYMrU
BhaOpW4n8KPOLdQYGCEAKUXWuSOEWuiUdgVmRvnzXkFskOt47dnGf3lwxq/07Lot
jcfH1HU3VWYkz5EJXY4DhcEU2l5cRti3ejCiVvu3aAUNSm9pQz7i90/KtXvKYFAy
OV+s2BYXyB++5QAE4RNoFSJEUKIYYzvVoy+CfOWO+jQtdGavX5u76DDtutr6LfCm
QMmSiRv+jOcWpuRODBYnPMFuGy0zBbVXi1Yh0WWWxwMv9P3PsyOD5I4uUkmaMltC
rrZcM+Rk9TuHiSv6o/HBrFzBipb+c0Gwg1ewlj6I+BkFVQcgKQJDKer8lpB9Av5j
xbeF/zSlotCZ7Iy9r75DKm0KFwIDAQABo1owWDAdBgNVHQ4EFgQUxrtcnHO8076v
ltSzO2Nu0YxjZWkwHwYDVR0jBBgwFoAUWkhNCKc2CK4gxc6hjlDiHZUmkWQwCQYD
VR0TBAIwADALBgNVHQ8EBAMCBaAwDQYJKoZIhvcNAQELBQADggIBAIPPtidY/t/m
A8z9RgiJ1Ze4VSVzsNkgp9dT8ccHyTKDd/WMZre/LMnaCKaTAie6/J5AxEgKImIv
NwVeWZtLn4ApD9wuqdFyIXa27U5EHkZ/tYUErSr/DOBcc/7bTfYFlkB/DVlrV/Df
vBXawNqps12fjhs4pBTwX4U3LoDF/gkJcYgaLKjolhuX4QW5p/jJIVW8LCDeE7TI
iiSALSgxVbo2Ln82AhKMEnZC7fCAwwez3/owY9OmLFG8wE0dfA2ObnK2nrYh1C0b
UG8Rt+7+ejBzjq6J64dBp74vl04Opmv9Olhyg0KPqMqzSdtvRoDkDdshLClpvqLy
P8A7nABW5O/OoS432B8fOit+Xajn44y4C/Kb3YCIvNnXIXoIikE1CWAqMX++zQzU
30vTOfrc+sGEFq/vUq3tjTGuKwcpIlMutgh+kAfVqZBfUJ1ioCj2CabMCDfpUm7A
udo+b88ihM8lAoqJKaN5iTHjmFGz82AnKQW8HTkU0Ybdz4C0iWe0E1PKZbxVamV0
AN7VlkxvUNQFHVOHvZu3JM60ozzA9dJ3MKXZUe7qc/iAYPUQM3WKhsn2ezQIlAW2
z+4ngJdK2f5s0KRQYe61vhletuI/dNZty+6aHqDCmKASEP8dGYnNf5X3OiqlqRbz
rP4JueOBhEdGNj29WABofWd/wHyMD0da
-----END CERTIFICATE-----
