Certificate:
    Data:
        Version: 3 (0x2)
        Serial Number: 13 (0xd)
    Signature Algorithm: sha256WithRSAEncryption
        Issuer: C=IN, ST=Delhi, L=Delhi, O=IIITD, OU=NS, CN=Gursimran/emailAddress=gursimran14041@iiitd.ac.in
        Validity
            Not Before: Nov 30 11:40:33 2016 GMT
            Not After : Aug 27 11:40:33 2019 GMT
        Subject: C=in, ST=del, L=dele, O=iiit, OU=ns, CN=alice
        Subject Public Key Info:
            Public Key Algorithm: rsaEncryption
                Public-Key: (4096 bit)
                Modulus:
                    00:e0:cb:79:01:9d:a2:62:e1:7e:b2:76:04:ab:e3:
                    76:f7:94:ab:2d:8e:2c:fd:91:5b:5a:9d:4b:eb:68:
                    e1:92:59:0c:d0:90:a9:ef:59:c7:9f:76:66:fa:24:
                    50:78:51:0c:14:2d:e3:2b:81:fa:8a:e1:aa:55:aa:
                    29:e5:61:64:8a:5f:fd:09:f2:45:52:f9:c0:30:d7:
                    d2:5c:af:cf:8f:a9:7b:d2:b8:d8:5c:ec:9c:c8:81:
                    96:99:f4:8a:a6:1a:ab:57:25:88:56:a9:c3:12:89:
                    04:9b:89:9e:11:8b:6a:80:b9:39:40:87:8f:5a:06:
                    4d:cc:25:25:f9:f7:13:a7:07:ce:54:86:31:4a:e4:
                    16:d6:6c:ed:7f:cb:26:c0:11:c4:c6:ad:98:83:48:
                    42:bf:be:d2:f2:8c:9a:65:8a:c2:9e:9d:d7:59:ec:
                    7b:d1:5a:21:7c:03:de:4e:a6:55:12:d6:a6:c9:c2:
                    cd:2e:40:3e:2a:8a:40:51:68:84:4d:9c:b9:c5:f6:
                    98:8a:48:16:3d:52:19:37:20:86:73:f8:81:0f:cb:
                    1f:06:28:55:80:a8:23:50:64:5a:94:2f:2e:fb:b2:
                    f0:fc:cf:6d:d8:e4:c2:6d:d6:3f:e3:33:d7:e7:16:
                    7c:97:78:04:1b:2a:d5:a2:58:9b:dd:82:32:5b:8d:
                    19:b5:ec:7a:04:3b:72:6a:89:89:90:3d:c5:f1:ae:
                    74:64:0f:54:63:da:90:80:91:ae:c2:b5:5d:c5:cf:
                    9b:04:84:a4:74:9b:74:29:53:17:15:ce:7a:86:07:
                    32:3c:51:13:54:0e:fd:6e:ec:e2:b9:5c:7d:be:6c:
                    9f:05:03:1d:34:8d:24:fd:d5:7d:70:b5:2e:c5:8d:
                    17:ff:6b:a3:9f:73:d4:20:7b:ac:57:99:f2:98:aa:
                    2e:80:df:09:61:35:0b:7f:32:9a:bf:3c:16:2f:28:
                    26:8c:42:3a:45:32:f1:41:4d:c4:0b:2c:3d:64:00:
                    3e:0b:97:81:a1:59:b3:bd:1b:d7:f7:3e:ce:d9:be:
                    95:68:44:54:12:0d:96:cc:1e:0f:f4:20:56:f8:6b:
                    cd:e6:a4:20:c2:6a:26:cd:23:87:d4:37:dc:f3:7f:
                    97:06:70:9e:e6:f2:74:e6:4e:f8:69:57:cc:66:e0:
                    aa:0a:dc:10:c8:a1:4d:02:1f:83:e8:1b:42:e0:c9:
                    5e:c8:4f:45:e8:f9:0c:15:8c:0b:8e:8a:b3:84:41:
                    d6:34:a0:0f:b7:c3:ba:b8:80:a8:69:92:7a:b7:a8:
                    64:64:98:ba:ff:ff:e5:5f:79:e4:1b:7a:ac:9c:f0:
                    02:a1:98:df:bc:f1:5a:07:c0:87:cb:2e:cd:d8:a8:
                    9c:64:73
                Exponent: 65537 (0x10001)
        X509v3 extensions:
            X509v3 Subject Key Identifier: 
                0C:E9:21:88:A9:2C:66:C6:23:A9:1B:92:9B:AB:A2:CC:8E:DB:A4:27
            X509v3 Authority Key Identifier: 
                keyid:5A:48:4D:08:A7:36:08:AE:20:C5:CE:A1:8E:50:E2:1D:95:26:91:64

            X509v3 Basic Constraints: 
                CA:FALSE
            X509v3 Key Usage: 
                Digital Signature, Key Encipherment
    Signature Algorithm: sha256WithRSAEncryption
         0d:8b:b3:bb:29:aa:ab:62:b2:9e:3e:98:1b:b0:3b:eb:19:38:
         f5:9e:a0:ed:63:85:2a:02:e1:bd:6a:b2:d6:67:25:8b:46:a3:
         de:ad:62:73:09:0f:3e:fe:42:b2:ea:5a:a0:25:58:0a:50:ef:
         de:db:a6:da:7e:25:7b:5a:b7:31:5d:cc:ef:b0:ca:86:35:b3:
         14:92:6a:be:7b:22:94:12:b0:37:8b:f4:35:cb:01:8f:09:5d:
         50:0f:a6:6d:5b:09:df:f2:4c:6f:98:73:94:4e:32:7d:62:ae:
         4d:e0:5e:5f:22:36:23:f2:1e:2e:3e:1c:0a:66:6d:35:7a:15:
         d2:df:ff:99:95:dd:ad:d2:ac:f0:85:f8:85:88:91:7b:30:cc:
         18:fd:36:80:11:7a:0c:fe:eb:d9:4d:ac:27:20:0b:97:17:ea:
         c1:9c:09:ec:e5:d7:9b:7b:6d:91:b5:ff:ac:08:ab:3d:ef:c3:
         f8:03:95:0b:60:d9:11:fc:e1:da:73:17:fd:6c:13:af:2a:bf:
         a5:eb:00:1e:62:e6:a6:81:20:d7:12:57:b0:30:85:cd:4a:be:
         36:6c:18:1b:22:43:b3:68:ee:03:07:58:1e:a5:dc:df:57:71:
         5a:47:5e:90:ce:34:0b:46:69:5f:6b:bc:e4:19:5f:3d:93:aa:
         04:5e:1e:28:69:a5:57:38:6f:c3:4a:c2:73:a8:93:13:e2:8d:
         ec:72:17:03:cd:c6:09:66:54:44:16:ae:ba:49:e8:6d:d7:52:
         b9:07:0b:c5:17:95:fe:01:36:10:b7:66:e9:ab:29:87:73:67:
         b7:1a:ac:df:34:df:6e:40:6f:e7:e1:37:a2:d8:e3:6e:ff:e7:
         fc:e0:05:50:a6:0c:f1:d1:60:16:bf:fb:c6:10:f3:0c:20:54:
         17:1a:9e:0c:65:67:f6:79:af:31:49:07:09:61:94:05:e8:01:
         df:fd:48:8b:d0:d0:42:dd:9c:7d:ee:e5:73:75:ab:3c:d1:fa:
         03:d4:eb:5d:a6:10:84:47:3b:e6:4f:48:56:38:ca:d7:03:63:
         5b:40:98:2c:66:96:f9:98:d2:56:b7:ea:f5:d2:ee:4d:94:73:
         59:28:5b:88:af:83:e5:a9:60:c8:5f:49:93:ef:80:4b:e1:3a:
         4d:a2:aa:41:7f:27:57:7e:b8:dc:a9:a6:de:0b:50:55:76:64:
         e8:77:b9:b3:3a:d8:10:71:94:d4:ab:81:48:ac:6c:ad:3d:d7:
         4d:c1:a9:3b:13:cb:b6:19:1f:eb:ae:22:b2:f3:1f:cd:05:0c:
         cd:69:7e:1f:22:8d:2e:ee:42:15:7e:e3:aa:91:82:81:5d:38:
         ae:ef:99:7e:49:e8:ea:77
-----BEGIN CERTIFICATE-----
MIIFtTCCA52gAwIBAgIBDTANBgkqhkiG9w0BAQsFADCBiTELMAkGA1UEBhMCSU4x
DjAMBgNVBAgMBURlbGhpMQ4wDAYDVQQHDAVEZWxoaTEOMAwGA1UECgwFSUlJVEQx
CzAJBgNVBAsMAk5TMRIwEAYDVQQDDAlHdXJzaW1yYW4xKTAnBgkqhkiG9w0BCQEW
Gmd1cnNpbXJhbjE0MDQxQGlpaXRkLmFjLmluMB4XDTE2MTEzMDExNDAzM1oXDTE5
MDgyNzExNDAzM1owVjELMAkGA1UEBhMCaW4xDDAKBgNVBAgMA2RlbDENMAsGA1UE
BwwEZGVsZTENMAsGA1UECgwEaWlpdDELMAkGA1UECwwCbnMxDjAMBgNVBAMMBWFs
aWNlMIICIjANBgkqhkiG9w0BAQEFAAOCAg8AMIICCgKCAgEA4Mt5AZ2iYuF+snYE
q+N295SrLY4s/ZFbWp1L62jhklkM0JCp71nHn3Zm+iRQeFEMFC3jK4H6iuGqVaop
5WFkil/9CfJFUvnAMNfSXK/Pj6l70rjYXOycyIGWmfSKphqrVyWIVqnDEokEm4me
EYtqgLk5QIePWgZNzCUl+fcTpwfOVIYxSuQW1mztf8smwBHExq2Yg0hCv77S8oya
ZYrCnp3XWex70VohfAPeTqZVEtamycLNLkA+KopAUWiETZy5xfaYikgWPVIZNyCG
c/iBD8sfBihVgKgjUGRalC8u+7Lw/M9t2OTCbdY/4zPX5xZ8l3gEGyrVolib3YIy
W40Ztex6BDtyaomJkD3F8a50ZA9UY9qQgJGuwrVdxc+bBISkdJt0KVMXFc56hgcy
PFETVA79buziuVx9vmyfBQMdNI0k/dV9cLUuxY0X/2ujn3PUIHusV5nymKougN8J
YTULfzKavzwWLygmjEI6RTLxQU3ECyw9ZAA+C5eBoVmzvRvX9z7O2b6VaERUEg2W
zB4P9CBW+GvN5qQgwmomzSOH1Dfc83+XBnCe5vJ05k74aVfMZuCqCtwQyKFNAh+D
6BtC4MleyE9F6PkMFYwLjoqzhEHWNKAPt8O6uICoaZJ6t6hkZJi6///lX3nkG3qs
nPACoZjfvPFaB8CHyy7N2KicZHMCAwEAAaNaMFgwHQYDVR0OBBYEFAzpIYipLGbG
I6kbkpurosyO26QnMB8GA1UdIwQYMBaAFFpITQinNgiuIMXOoY5Q4h2VJpFkMAkG
A1UdEwQCMAAwCwYDVR0PBAQDAgWgMA0GCSqGSIb3DQEBCwUAA4ICAQANi7O7Kaqr
YrKePpgbsDvrGTj1nqDtY4UqAuG9arLWZyWLRqPerWJzCQ8+/kKy6lqgJVgKUO/e
26bafiV7WrcxXczvsMqGNbMUkmq+eyKUErA3i/Q1ywGPCV1QD6ZtWwnf8kxvmHOU
TjJ9Yq5N4F5fIjYj8h4uPhwKZm01ehXS3/+Zld2t0qzwhfiFiJF7MMwY/TaAEXoM
/uvZTawnIAuXF+rBnAns5debe22Rtf+sCKs978P4A5ULYNkR/OHacxf9bBOvKr+l
6wAeYuamgSDXElewMIXNSr42bBgbIkOzaO4DB1gepdzfV3FaR16QzjQLRmlfa7zk
GV89k6oEXh4oaaVXOG/DSsJzqJMT4o3schcDzcYJZlREFq66Seht11K5BwvFF5X+
ATYQt2bpqymHc2e3GqzfNN9uQG/n4Tei2ONu/+f84AVQpgzx0WAWv/vGEPMMIFQX
Gp4MZWf2ea8xSQcJYZQF6AHf/UiL0NBC3Zx97uVzdas80foD1OtdphCERzvmT0hW
OMrXA2NbQJgsZpb5mNJWt+r10u5NlHNZKFuIr4PlqWDIX0mT74BL4TpNoqpBfydX
frjcqabeC1BVdmTod7mzOtgQcZTUq4FIrGytPddNwak7E8u2GR/rriKy8x/NBQzN
aX4fIo0u7kIVfuOqkYKBXTiu75l+Sejqdw==
-----END CERTIFICATE-----
