Certificate:
    Data:
        Version: 3 (0x2)
        Serial Number: 14 (0xe)
    Signature Algorithm: sha256WithRSAEncryption
        Issuer: C=IN, ST=Delhi, L=Delhi, O=IIITD, OU=NS, CN=Gursimran/emailAddress=gursimran14041@iiitd.ac.in
        Validity
            Not Before: Nov 30 11:41:10 2016 GMT
            Not After : Aug 27 11:41:10 2019 GMT
        Subject: C=in, ST=del, L=del, O=iiit, OU=ns, CN=bob
        Subject Public Key Info:
            Public Key Algorithm: rsaEncryption
                Public-Key: (4096 bit)
                Modulus:
                    00:eb:27:3e:fe:a8:56:54:7d:ff:0d:b7:16:09:a1:
                    c4:9d:98:05:74:1b:54:d6:01:50:5f:93:d7:17:3b:
                    61:fe:c4:8e:2f:7c:8d:68:d8:62:93:71:04:88:5b:
                    57:e3:de:96:eb:1b:8d:79:8c:ef:60:5b:53:97:94:
                    31:35:ff:1f:f6:cc:ad:f0:0c:52:3a:15:4f:59:37:
                    c3:f6:aa:84:30:05:37:a4:02:99:d9:bf:c3:7a:ae:
                    6f:5d:95:fa:ee:04:e5:30:c5:01:b2:62:9d:f4:f4:
                    cb:d9:b3:34:c2:db:be:3b:9f:f1:a7:ce:34:41:70:
                    cd:43:b1:9b:0f:f4:dd:16:e1:47:9e:04:da:f7:21:
                    c1:b2:30:f8:56:e4:80:b9:b6:c8:12:00:df:c4:ed:
                    aa:6f:d9:32:c5:c9:71:4a:98:cc:e5:26:3e:3c:50:
                    ed:d8:03:fc:7f:58:1b:ac:82:34:11:72:7f:40:cf:
                    e1:57:17:b3:e3:a8:37:df:92:66:2e:e8:e5:1b:89:
                    5e:45:6e:92:c9:30:6b:1d:b4:6c:0e:d0:83:39:5d:
                    01:1d:fd:8d:c2:07:25:06:da:a1:cd:8c:4c:49:cf:
                    d0:38:f1:5e:ab:a5:fa:c6:37:3a:ef:39:78:0f:d4:
                    c9:81:39:3c:a1:f6:89:e4:04:07:19:79:33:d6:09:
                    a2:f1:b2:50:24:d6:92:43:88:ee:75:d1:67:45:91:
                    f8:c1:ed:49:02:48:c6:0f:b0:b6:99:bb:bc:32:93:
                    0a:2a:12:4b:57:a0:fb:74:a8:9a:34:99:01:2c:52:
                    c3:f2:44:20:4d:4a:b6:15:24:d1:e4:ad:92:dc:74:
                    c9:7c:43:c4:62:fa:d0:46:8c:82:7d:78:f2:a1:db:
                    ab:a3:33:5c:45:d2:f6:8e:42:67:5d:39:67:08:68:
                    b5:10:a6:8d:e5:85:ee:86:ce:4a:fc:51:46:29:22:
                    0b:e7:72:97:0e:6c:16:94:5a:46:9a:2d:f4:a5:25:
                    b8:16:93:19:0d:f9:b1:35:97:7b:0e:79:0e:2e:28:
                    3a:c1:9a:33:0b:c7:1c:bd:2f:fd:34:18:5b:a2:f0:
                    46:b2:cf:86:86:22:71:51:1c:a9:7c:4d:c8:8b:39:
                    d2:89:7e:dd:f9:a2:f2:c2:65:38:c3:0d:19:db:08:
                    65:39:ed:37:81:34:da:c0:06:89:00:3f:0b:6f:05:
                    ca:21:50:47:b9:7b:9d:d7:1f:63:83:a7:ef:03:b3:
                    6f:bb:8a:24:81:0e:61:c6:db:03:bd:81:08:4e:d0:
                    28:40:3e:d1:aa:84:3d:c7:af:75:89:c8:94:5d:57:
                    7f:c7:03:e9:4a:cb:0a:17:48:33:2d:d7:7d:b7:b6:
                    0f:f9:73
                Exponent: 65537 (0x10001)
        X509v3 extensions:
            X509v3 Subject Key Identifier: 
                90:8A:94:44:B5:04:C6:A9:F9:6A:8E:68:49:EF:48:14:55:A1:C5:AF
            X509v3 Authority Key Identifier: 
                keyid:5A:48:4D:08:A7:36:08:AE:20:C5:CE:A1:8E:50:E2:1D:95:26:91:64

            X509v3 Basic Constraints: 
                CA:FALSE
            X509v3 Key Usage: 
                Digital Signature, Key Encipherment
    Signature Algorithm: sha256WithRSAEncryption
         44:5f:27:91:c5:fd:a6:4e:83:a6:bc:df:60:fe:2d:24:48:9a:
         d9:f6:b8:72:51:02:b3:1b:4e:3f:63:a4:ca:a2:a0:32:42:cb:
         79:97:19:a1:ec:ee:82:84:05:b7:fa:5b:ca:2b:8e:8b:e6:4e:
         c6:e9:9d:cc:0e:89:9e:94:be:89:6d:7b:9e:43:35:8d:4b:f6:
         4b:8d:37:af:67:90:d8:d8:af:46:43:75:33:aa:f8:a8:c3:ab:
         d3:f8:4c:16:ef:8a:e6:4d:54:c3:e9:5f:b7:be:16:b5:91:1f:
         7c:89:2c:96:3d:0a:22:65:da:df:14:8d:dc:54:fb:99:16:97:
         27:bf:cb:dd:7b:98:55:09:7c:43:7d:c2:0a:7c:d5:e3:1a:78:
         57:e7:b2:95:3c:8d:af:70:47:cc:c2:51:8b:f6:5a:a9:ee:70:
         f5:16:79:dd:cc:86:83:31:64:73:91:fa:6f:b1:05:8d:b9:c0:
         23:dd:c4:37:ab:30:00:26:d8:d3:1c:5c:35:3d:a0:2e:0e:07:
         ab:40:e1:7c:34:99:11:a5:d7:d8:1e:a1:7b:7d:53:3d:ec:2c:
         36:80:1b:8a:5a:49:51:b1:27:b4:6f:9a:91:fd:43:6b:68:6d:
         5c:f3:d4:b1:8e:68:e6:ad:21:68:6a:89:04:d2:8d:e1:79:47:
         7f:a1:f3:3c:c0:59:3a:f0:2a:dc:2a:6a:e8:95:87:8d:09:d7:
         f2:c5:a0:bf:07:f2:fd:60:a7:92:b6:32:58:2f:ea:df:64:96:
         0d:04:70:be:31:f0:ff:0c:43:c2:5e:04:53:96:f8:a4:45:5b:
         12:50:0a:cc:c4:ec:6d:0e:c9:29:c0:5b:53:73:de:64:43:de:
         51:53:dd:c2:58:6b:f7:c6:21:42:5e:2b:20:a3:b8:2d:eb:81:
         6b:5b:2f:12:7a:59:d1:38:79:72:be:af:c4:05:4b:73:02:74:
         55:a2:c3:90:4f:a3:45:fa:a3:7a:72:20:14:c0:0d:9e:19:7d:
         5d:5c:62:ed:40:12:75:a4:5a:93:da:5b:7e:f2:4c:d7:c7:f3:
         15:03:a8:cd:64:7f:f7:29:5b:0e:4e:84:76:dd:b4:09:1a:cc:
         7c:1c:02:ea:e4:7f:18:ee:3f:a6:17:2a:90:22:c2:0c:9b:43:
         fd:dd:c1:69:90:6b:31:8b:c5:2b:09:57:3e:e5:d1:4f:67:fc:
         07:5b:97:bb:68:b2:eb:70:c6:ee:48:4b:0b:92:31:e4:d9:cf:
         7b:3f:18:6a:02:8d:95:dc:54:66:de:01:63:26:92:53:60:38:
         62:13:74:9e:b4:d8:c4:a8:c8:b5:30:80:ab:12:b8:84:4e:04:
         b0:91:a5:53:0b:24:bf:43
-----BEGIN CERTIFICATE-----
MIIFsjCCA5qgAwIBAgIBDjANBgkqhkiG9w0BAQsFADCBiTELMAkGA1UEBhMCSU4x
DjAMBgNVBAgMBURlbGhpMQ4wDAYDVQQHDAVEZWxoaTEOMAwGA1UECgwFSUlJVEQx
CzAJBgNVBAsMAk5TMRIwEAYDVQQDDAlHdXJzaW1yYW4xKTAnBgkqhkiG9w0BCQEW
Gmd1cnNpbXJhbjE0MDQxQGlpaXRkLmFjLmluMB4XDTE2MTEzMDExNDExMFoXDTE5
MDgyNzExNDExMFowUzELMAkGA1UEBhMCaW4xDDAKBgNVBAgMA2RlbDEMMAoGA1UE
BwwDZGVsMQ0wCwYDVQQKDARpaWl0MQswCQYDVQQLDAJuczEMMAoGA1UEAwwDYm9i
MIICIjANBgkqhkiG9w0BAQEFAAOCAg8AMIICCgKCAgEA6yc+/qhWVH3/DbcWCaHE
nZgFdBtU1gFQX5PXFzth/sSOL3yNaNhik3EEiFtX496W6xuNeYzvYFtTl5QxNf8f
9syt8AxSOhVPWTfD9qqEMAU3pAKZ2b/Deq5vXZX67gTlMMUBsmKd9PTL2bM0wtu+
O5/xp840QXDNQ7GbD/TdFuFHngTa9yHBsjD4VuSAubbIEgDfxO2qb9kyxclxSpjM
5SY+PFDt2AP8f1gbrII0EXJ/QM/hVxez46g335JmLujlG4leRW6SyTBrHbRsDtCD
OV0BHf2NwgclBtqhzYxMSc/QOPFeq6X6xjc67zl4D9TJgTk8ofaJ5AQHGXkz1gmi
8bJQJNaSQ4juddFnRZH4we1JAkjGD7C2mbu8MpMKKhJLV6D7dKiaNJkBLFLD8kQg
TUq2FSTR5K2S3HTJfEPEYvrQRoyCfXjyodurozNcRdL2jkJnXTlnCGi1EKaN5YXu
hs5K/FFGKSIL53KXDmwWlFpGmi30pSW4FpMZDfmxNZd7DnkOLig6wZozC8ccvS/9
NBhbovBGss+GhiJxURypfE3IiznSiX7d+aLywmU4ww0Z2whlOe03gTTawAaJAD8L
bwXKIVBHuXud1x9jg6fvA7Nvu4okgQ5hxtsDvYEITtAoQD7RqoQ9x691iciUXVd/
xwPpSssKF0gzLdd9t7YP+XMCAwEAAaNaMFgwHQYDVR0OBBYEFJCKlES1BMap+WqO
aEnvSBRVocWvMB8GA1UdIwQYMBaAFFpITQinNgiuIMXOoY5Q4h2VJpFkMAkGA1Ud
EwQCMAAwCwYDVR0PBAQDAgWgMA0GCSqGSIb3DQEBCwUAA4ICAQBEXyeRxf2mToOm
vN9g/i0kSJrZ9rhyUQKzG04/Y6TKoqAyQst5lxmh7O6ChAW3+lvKK46L5k7G6Z3M
DomelL6JbXueQzWNS/ZLjTevZ5DY2K9GQ3Uzqviow6vT+EwW74rmTVTD6V+3vha1
kR98iSyWPQoiZdrfFI3cVPuZFpcnv8vde5hVCXxDfcIKfNXjGnhX57KVPI2vcEfM
wlGL9lqp7nD1FnndzIaDMWRzkfpvsQWNucAj3cQ3qzAAJtjTHFw1PaAuDgerQOF8
NJkRpdfYHqF7fVM97Cw2gBuKWklRsSe0b5qR/UNraG1c89SxjmjmrSFoaokE0o3h
eUd/ofM8wFk68CrcKmrolYeNCdfyxaC/B/L9YKeStjJYL+rfZJYNBHC+MfD/DEPC
XgRTlvikRVsSUArMxOxtDskpwFtTc95kQ95RU93CWGv3xiFCXisgo7gt64FrWy8S
elnROHlyvq/EBUtzAnRVosOQT6NF+qN6ciAUwA2eGX1dXGLtQBJ1pFqT2lt+8kzX
x/MVA6jNZH/3KVsOToR23bQJGsx8HALq5H8Y7j+mFyqQIsIMm0P93cFpkGsxi8Ur
CVc+5dFPZ/wHW5e7aLLrcMbuSEsLkjHk2c97PxhqAo2V3FRm3gFjJpJTYDhiE3Se
tNjEqMi1MICrEriETgSwkaVTCyS/Qw==
-----END CERTIFICATE-----
